   1               		.file	"Endpoint.c"
   2               	__SREG__ = 0x3f
   3               	__SP_H__ = 0x3e
   4               	__SP_L__ = 0x3d
   5               	__CCP__  = 0x34
   6               	__tmp_reg__ = 0
   7               	__zero_reg__ = 1
  15               	.Ltext0:
  16               		.section	.text.Endpoint_BytesToEPSizeMaskDynamic,"ax",@progbits
  17               	.global	Endpoint_BytesToEPSizeMaskDynamic
  19               	Endpoint_BytesToEPSizeMaskDynamic:
  20               	.LFB20:
  21               	.LSM0:
  22               	.LVL0:
  23               	/* prologue: function */
  24               	/* frame size = 0 */
  25               	.LSM1:
  26 0000 28E0      		ldi r18,lo8(8)
  27 0002 30E0      		ldi r19,hi8(8)
  28               	.LVL1:
  29 0004 40E0      		ldi r20,lo8(0)
  30               	.LVL2:
  31 0006 00C0      		rjmp .L2
  32               	.L3:
  33               	.LBB87:
  34               	.LBB88:
  35               	.LSM2:
  36 0008 4F5F      		subi r20,lo8(-(1))
  37               	.LSM3:
  38 000a 220F      		lsl r18
  39 000c 331F      		rol r19
  40               	.L2:
  41               	.LSM4:
  42 000e 2817      		cp r18,r24
  43 0010 3907      		cpc r19,r25
  44 0012 00F0      		brlo .L3
  45               	.LBE88:
  46               	.LBE87:
  47               	.LSM5:
  48 0014 842F      		mov r24,r20
  49               	.LVL3:
  50 0016 8295      		swap r24
  51 0018 807F      		andi r24,lo8(-16)
  52               	/* epilogue start */
  53 001a 0895      		ret
  54               	.LFE20:
  56               		.section	.text.Endpoint_ConfigureEndpoint_Prv,"ax",@progbits
  57               	.global	Endpoint_ConfigureEndpoint_Prv
  59               	Endpoint_ConfigureEndpoint_Prv:
  60               	.LFB21:
  61               	.LSM6:
  62               	.LVL4:
  63               	/* prologue: function */
  64               	/* frame size = 0 */
  65               	.LSM7:
  66 0000 8093 E900 		sts 233,r24
  67               	.LSM8:
  68 0004 8091 EB00 		lds r24,235
  69               	.LVL5:
  70 0008 8160      		ori r24,lo8(1)
  71 000a 8093 EB00 		sts 235,r24
  72               	.LSM9:
  73 000e 1092 ED00 		sts 237,__zero_reg__
  74               	.LSM10:
  75 0012 6093 EC00 		sts 236,r22
  76               	.LSM11:
  77 0016 4093 ED00 		sts 237,r20
  78               	.LSM12:
  79 001a 8091 EE00 		lds r24,238
  80               	.LSM13:
  81 001e 881F      		rol r24
  82 0020 8827      		clr r24
  83 0022 881F      		rol r24
  84               	/* epilogue start */
  85 0024 0895      		ret
  86               	.LFE21:
  88               		.section	.text.Endpoint_ClearEndpoints,"ax",@progbits
  89               	.global	Endpoint_ClearEndpoints
  91               	Endpoint_ClearEndpoints:
  92               	.LFB22:
  93               	.LSM14:
  94               	/* prologue: function */
  95               	/* frame size = 0 */
  96               	.LSM15:
  97 0000 1092 F400 		sts 244,__zero_reg__
  98 0004 90E0      		ldi r25,lo8(0)
  99               	.LVL6:
 100               	.L9:
 101               	.LBB89:
 102               	.LSM16:
 103 0006 9093 E900 		sts 233,r25
 104               	.LSM17:
 105 000a 1092 F000 		sts 240,__zero_reg__
 106               	.LSM18:
 107 000e 1092 E800 		sts 232,__zero_reg__
 108               	.LSM19:
 109 0012 8091 ED00 		lds r24,237
 110 0016 8D7F      		andi r24,lo8(-3)
 111 0018 8093 ED00 		sts 237,r24
 112               	.LSM20:
 113 001c 8091 EB00 		lds r24,235
 114 0020 8E7F      		andi r24,lo8(-2)
 115 0022 8093 EB00 		sts 235,r24
 116               	.LSM21:
 117 0026 9F5F      		subi r25,lo8(-(1))
 118 0028 9730      		cpi r25,lo8(7)
 119 002a 01F4      		brne .L9
 120               	/* epilogue start */
 121               	.LBE89:
 122               	.LSM22:
 123 002c 0895      		ret
 124               	.LFE22:
 126               		.section	.text.Endpoint_ClearStatusStage,"ax",@progbits
 127               	.global	Endpoint_ClearStatusStage
 129               	Endpoint_ClearStatusStage:
 130               	.LFB23:
 131               	.LSM23:
 132               	/* prologue: function */
 133               	/* frame size = 0 */
 134               	.LSM24:
 135 0000 8091 0000 		lds r24,USB_ControlRequest
 136 0004 8823      		tst r24
 137 0006 04F4      		brge .L20
 138 0008 00C0      		rjmp .L19
 139               	.L16:
 140               	.LSM25:
 141 000a 8091 0000 		lds r24,USB_DeviceState
 142 000e 8823      		tst r24
 143 0010 01F0      		breq .L18
 144               	.L19:
 145               	.LSM26:
 146 0012 8091 E800 		lds r24,232
 147 0016 82FF      		sbrs r24,2
 148 0018 00C0      		rjmp .L16
 149               	.LBB90:
 150               	.LSM27:
 151 001a 8091 E800 		lds r24,232
 152               	.LVL7:
 153 001e 982F      		mov r25,r24
 154 0020 9B7F      		andi r25,lo8(-5)
 155 0022 9093 E800 		sts 232,r25
 156 0026 8F77      		andi r24,lo8(127)
 157 0028 8093 E800 		sts 232,r24
 158 002c 0895      		ret
 159               	.LVL8:
 160               	.L17:
 161               	.LBE90:
 162               	.LSM28:
 163 002e 8091 0000 		lds r24,USB_DeviceState
 164 0032 8823      		tst r24
 165 0034 01F0      		breq .L18
 166               	.L20:
 167               	.LSM29:
 168 0036 8091 E800 		lds r24,232
 169 003a 80FF      		sbrs r24,0
 170 003c 00C0      		rjmp .L17
 171               	.LBB91:
 172               	.LSM30:
 173 003e 8091 E800 		lds r24,232
 174               	.LVL9:
 175 0042 982F      		mov r25,r24
 176 0044 9E7F      		andi r25,lo8(-2)
 177 0046 9093 E800 		sts 232,r25
 178 004a 8F77      		andi r24,lo8(127)
 179 004c 8093 E800 		sts 232,r24
 180               	.L18:
 181 0050 0895      		ret
 182               	.LBE91:
 183               	.LFE23:
 185               		.section	.text.Endpoint_WaitUntilReady,"ax",@progbits
 186               	.global	Endpoint_WaitUntilReady
 188               	Endpoint_WaitUntilReady:
 189               	.LFB24:
 190               	.LSM31:
 191               	/* prologue: function */
 192               	/* frame size = 0 */
 193               	.LSM32:
 194 0000 94E6      		ldi r25,lo8(100)
 195               	.LVL10:
 196               	.L33:
 197               	.LSM33:
 198 0002 8091 EC00 		lds r24,236
 199 0006 80FF      		sbrs r24,0
 200 0008 00C0      		rjmp .L22
 201               	.LSM34:
 202 000a 8091 E800 		lds r24,232
 203 000e 80FF      		sbrs r24,0
 204 0010 00C0      		rjmp .L24
 205 0012 00C0      		rjmp .L23
 206               	.L22:
 207               	.LSM35:
 208 0014 8091 E800 		lds r24,232
 209 0018 82FD      		sbrc r24,2
 210 001a 00C0      		rjmp .L23
 211               	.L24:
 212               	.LSM36:
 213 001c 8091 0000 		lds r24,USB_DeviceState
 214 0020 8823      		tst r24
 215 0022 01F4      		brne .L25
 216 0024 82E0      		ldi r24,lo8(2)
 217 0026 0895      		ret
 218               	.L25:
 219               	.LSM37:
 220 0028 8091 EB00 		lds r24,235
 221 002c 85FF      		sbrs r24,5
 222 002e 00C0      		rjmp .L27
 223 0030 81E0      		ldi r24,lo8(1)
 224 0032 0895      		ret
 225               	.L27:
 226               	.LSM38:
 227 0034 8091 E100 		lds r24,225
 228 0038 82FF      		sbrs r24,2
 229 003a 00C0      		rjmp .L33
 230               	.LSM39:
 231 003c 8091 E100 		lds r24,225
 232 0040 8B7F      		andi r24,lo8(-5)
 233 0042 8093 E100 		sts 225,r24
 234               	.LSM40:
 235 0046 9923      		tst r25
 236 0048 01F4      		brne .L29
 237 004a 83E0      		ldi r24,lo8(3)
 238 004c 0895      		ret
 239               	.L29:
 240 004e 9150      		subi r25,lo8(-(-1))
 241 0050 00C0      		rjmp .L33
 242               	.L23:
 243 0052 80E0      		ldi r24,lo8(0)
 244               	.LSM41:
 245 0054 0895      		ret
 246               	.LFE24:
 248               		.section	.text.Endpoint_Discard_Stream,"ax",@progbits
 249               	.global	Endpoint_Discard_Stream
 251               	Endpoint_Discard_Stream:
 252               	.LFB25:
 253               	.LSM42:
 254               	.LVL11:
 255 0000 FF92      		push r15
 256 0002 0F93      		push r16
 257 0004 1F93      		push r17
 258 0006 CF93      		push r28
 259 0008 DF93      		push r29
 260               	/* prologue: function */
 261               	/* frame size = 0 */
 262 000a EC01      		movw r28,r24
 263 000c 8B01      		movw r16,r22
 264               	.LSM43:
 265 000e 0E94 0000 		call Endpoint_WaitUntilReady
 266               	.LVL12:
 267 0012 F82E      		mov r15,r24
 268               	.LVL13:
 269 0014 8823      		tst r24
 270 0016 01F0      		breq .L42
 271               	.LVL14:
 272 0018 00C0      		rjmp .L35
 273               	.LVL15:
 274               	.L40:
 275               	.LSM44:
 276 001a 8091 E800 		lds r24,232
 277               	.LVL16:
 278 001e 85FD      		sbrc r24,5
 279 0020 00C0      		rjmp .L37
 280               	.LBB92:
 281               	.LSM45:
 282 0022 8091 E800 		lds r24,232
 283               	.LVL17:
 284 0026 982F      		mov r25,r24
 285 0028 9B7F      		andi r25,lo8(-5)
 286 002a 9093 E800 		sts 232,r25
 287 002e 8F77      		andi r24,lo8(127)
 288 0030 8093 E800 		sts 232,r24
 289               	.LBE92:
 290               	.LSM46:
 291 0034 0115      		cp r16,__zero_reg__
 292 0036 1105      		cpc r17,__zero_reg__
 293 0038 01F0      		breq .L38
 294 003a F801      		movw r30,r16
 295 003c 0995      		icall
 296               	.LVL18:
 297 003e 8130      		cpi r24,lo8(1)
 298 0040 01F4      		brne .L38
 299 0042 84E0      		ldi r24,lo8(4)
 300               	.LVL19:
 301 0044 00C0      		rjmp .L39
 302               	.LVL20:
 303               	.L38:
 304               	.LSM47:
 305 0046 0E94 0000 		call Endpoint_WaitUntilReady
 306               	.LVL21:
 307 004a 8823      		tst r24
 308 004c 01F0      		breq .L42
 309               	.LVL22:
 310 004e 00C0      		rjmp .L39
 311               	.LVL23:
 312               	.L37:
 313               	.LBB93:
 314               	.LBB94:
 315               	.LSM48:
 316 0050 8091 F100 		lds r24,241
 317               	.LVL24:
 318               	.LBE94:
 319               	.LBE93:
 320               	.LSM49:
 321 0054 2197      		sbiw r28,1
 322               	.LVL25:
 323               	.L42:
 324               	.LSM50:
 325 0056 2097      		sbiw r28,0
 326 0058 01F4      		brne .L40
 327               	.L35:
 328 005a 8F2D      		mov r24,r15
 329               	.LVL26:
 330               	.L39:
 331               	.LVL27:
 332               	/* epilogue start */
 333               	.LSM51:
 334 005c DF91      		pop r29
 335 005e CF91      		pop r28
 336               	.LVL28:
 337 0060 1F91      		pop r17
 338 0062 0F91      		pop r16
 339               	.LVL29:
 340 0064 FF90      		pop r15
 341               	.LVL30:
 342 0066 0895      		ret
 343               	.LFE25:
 345               		.section	.text.Endpoint_Write_Stream_LE,"ax",@progbits
 346               	.global	Endpoint_Write_Stream_LE
 348               	Endpoint_Write_Stream_LE:
 349               	.LFB26:
 350               	.LSM52:
 351               	.LVL31:
 352 0000 DF92      		push r13
 353 0002 EF92      		push r14
 354 0004 FF92      		push r15
 355 0006 0F93      		push r16
 356 0008 1F93      		push r17
 357 000a CF93      		push r28
 358 000c DF93      		push r29
 359               	/* prologue: function */
 360               	/* frame size = 0 */
 361 000e 182F      		mov r17,r24
 362 0010 092F      		mov r16,r25
 363               	.LVL32:
 364 0012 EB01      		movw r28,r22
 365 0014 7A01      		movw r14,r20
 366               	.LSM53:
 367 0016 0E94 0000 		call Endpoint_WaitUntilReady
 368               	.LVL33:
 369 001a D82E      		mov r13,r24
 370               	.LVL34:
 371 001c 8823      		tst r24
 372 001e 01F4      		brne .L44
 373               	.LVL35:
 374               	.LSM54:
 375 0020 812F      		mov r24,r17
 376               	.LVL36:
 377 0022 902F      		mov r25,r16
 378               	.LVL37:
 379 0024 9C01      		movw r18,r24
 380               	.LVL38:
 381 0026 8901      		movw r16,r18
 382               	.LVL39:
 383 0028 00C0      		rjmp .L51
 384               	.LVL40:
 385               	.L49:
 386               	.LSM55:
 387 002a 8091 E800 		lds r24,232
 388 002e 85FD      		sbrc r24,5
 389 0030 00C0      		rjmp .L46
 390               	.LBB95:
 391               	.LSM56:
 392 0032 8091 E800 		lds r24,232
 393               	.LVL41:
 394 0036 982F      		mov r25,r24
 395               	.LVL42:
 396 0038 9E7F      		andi r25,lo8(-2)
 397 003a 9093 E800 		sts 232,r25
 398 003e 8F77      		andi r24,lo8(127)
 399 0040 8093 E800 		sts 232,r24
 400               	.LBE95:
 401               	.LSM57:
 402 0044 E114      		cp r14,__zero_reg__
 403 0046 F104      		cpc r15,__zero_reg__
 404 0048 01F0      		breq .L47
 405 004a F701      		movw r30,r14
 406 004c 0995      		icall
 407               	.LVL43:
 408 004e 8130      		cpi r24,lo8(1)
 409 0050 01F4      		brne .L47
 410 0052 84E0      		ldi r24,lo8(4)
 411               	.LVL44:
 412 0054 00C0      		rjmp .L48
 413               	.LVL45:
 414               	.L47:
 415               	.LSM58:
 416 0056 0E94 0000 		call Endpoint_WaitUntilReady
 417               	.LVL46:
 418 005a 8823      		tst r24
 419 005c 01F0      		breq .L51
 420               	.LVL47:
 421 005e 00C0      		rjmp .L48
 422               	.LVL48:
 423               	.L46:
 424               	.LSM59:
 425 0060 F801      		movw r30,r16
 426 0062 8191      		ld r24,Z+
 427 0064 8F01      		movw r16,r30
 428               	.LBB96:
 429               	.LBB97:
 430               	.LSM60:
 431 0066 8093 F100 		sts 241,r24
 432               	.LBE97:
 433               	.LBE96:
 434               	.LSM61:
 435 006a 2197      		sbiw r28,1
 436               	.LVL49:
 437               	.L51:
 438               	.LSM62:
 439 006c 2097      		sbiw r28,0
 440 006e 01F4      		brne .L49
 441               	.LVL50:
 442               	.L44:
 443 0070 8D2D      		mov r24,r13
 444               	.L48:
 445               	.LVL51:
 446               	/* epilogue start */
 447               	.LSM63:
 448 0072 DF91      		pop r29
 449 0074 CF91      		pop r28
 450               	.LVL52:
 451 0076 1F91      		pop r17
 452               	.LVL53:
 453 0078 0F91      		pop r16
 454               	.LVL54:
 455 007a FF90      		pop r15
 456 007c EF90      		pop r14
 457               	.LVL55:
 458 007e DF90      		pop r13
 459               	.LVL56:
 460 0080 0895      		ret
 461               	.LFE26:
 463               		.section	.text.Endpoint_Write_PStream_LE,"ax",@progbits
 464               	.global	Endpoint_Write_PStream_LE
 466               	Endpoint_Write_PStream_LE:
 467               	.LFB27:
 468               	.LSM64:
 469               	.LVL57:
 470 0000 BF92      		push r11
 471 0002 CF92      		push r12
 472 0004 DF92      		push r13
 473 0006 EF92      		push r14
 474 0008 FF92      		push r15
 475 000a 0F93      		push r16
 476 000c 1F93      		push r17
 477 000e CF93      		push r28
 478 0010 DF93      		push r29
 479               	/* prologue: function */
 480               	/* frame size = 0 */
 481 0012 F82E      		mov r15,r24
 482 0014 E92E      		mov r14,r25
 483               	.LVL58:
 484 0016 8B01      		movw r16,r22
 485 0018 6A01      		movw r12,r20
 486               	.LSM65:
 487 001a 0E94 0000 		call Endpoint_WaitUntilReady
 488               	.LVL59:
 489 001e B82E      		mov r11,r24
 490               	.LVL60:
 491 0020 8823      		tst r24
 492 0022 01F4      		brne .L53
 493               	.LVL61:
 494               	.LSM66:
 495 0024 8F2D      		mov r24,r15
 496               	.LVL62:
 497 0026 9E2D      		mov r25,r14
 498               	.LVL63:
 499 0028 9C01      		movw r18,r24
 500               	.LVL64:
 501 002a E901      		movw r28,r18
 502               	.LVL65:
 503 002c 00C0      		rjmp .L60
 504               	.LVL66:
 505               	.L58:
 506               	.LSM67:
 507 002e 8091 E800 		lds r24,232
 508 0032 85FD      		sbrc r24,5
 509 0034 00C0      		rjmp .L55
 510               	.LBB98:
 511               	.LSM68:
 512 0036 8091 E800 		lds r24,232
 513               	.LVL67:
 514 003a 982F      		mov r25,r24
 515               	.LVL68:
 516 003c 9E7F      		andi r25,lo8(-2)
 517 003e 9093 E800 		sts 232,r25
 518 0042 8F77      		andi r24,lo8(127)
 519 0044 8093 E800 		sts 232,r24
 520               	.LBE98:
 521               	.LSM69:
 522 0048 C114      		cp r12,__zero_reg__
 523 004a D104      		cpc r13,__zero_reg__
 524 004c 01F0      		breq .L56
 525 004e F601      		movw r30,r12
 526 0050 0995      		icall
 527               	.LVL69:
 528 0052 8130      		cpi r24,lo8(1)
 529 0054 01F4      		brne .L56
 530 0056 84E0      		ldi r24,lo8(4)
 531               	.LVL70:
 532 0058 00C0      		rjmp .L57
 533               	.LVL71:
 534               	.L56:
 535               	.LSM70:
 536 005a 0E94 0000 		call Endpoint_WaitUntilReady
 537               	.LVL72:
 538 005e 8823      		tst r24
 539 0060 01F0      		breq .L60
 540               	.LVL73:
 541 0062 00C0      		rjmp .L57
 542               	.LVL74:
 543               	.L55:
 544               	.LBB99:
 545               	.LSM71:
 546 0064 FE01      		movw r30,r28
 547               	.LVL75:
 548 0066 2196      		adiw r28,1
 549               	/* #APP */
 550               	 ;  65 "../LUFA_100219/LUFA/Drivers/USB/LowLevel/Template/Template_Endpoint_RW.c" 1
 551 0068 E491      		lpm r30, Z
 552               		
 553               	 ;  0 "" 2
 554               	.LVL76:
 555               	/* #NOAPP */
 556               	.LBE99:
 557               	.LBB100:
 558               	.LBB101:
 559               	.LSM72:
 560 006a E093 F100 		sts 241,r30
 561               	.LBE101:
 562               	.LBE100:
 563               	.LSM73:
 564 006e 0150      		subi r16,lo8(-(-1))
 565 0070 1040      		sbci r17,hi8(-(-1))
 566               	.LVL77:
 567               	.L60:
 568               	.LSM74:
 569 0072 0115      		cp r16,__zero_reg__
 570 0074 1105      		cpc r17,__zero_reg__
 571 0076 01F4      		brne .L58
 572               	.LVL78:
 573               	.L53:
 574 0078 8B2D      		mov r24,r11
 575               	.L57:
 576               	.LVL79:
 577               	/* epilogue start */
 578               	.LSM75:
 579 007a DF91      		pop r29
 580 007c CF91      		pop r28
 581               	.LVL80:
 582 007e 1F91      		pop r17
 583 0080 0F91      		pop r16
 584               	.LVL81:
 585 0082 FF90      		pop r15
 586               	.LVL82:
 587 0084 EF90      		pop r14
 588               	.LVL83:
 589 0086 DF90      		pop r13
 590 0088 CF90      		pop r12
 591               	.LVL84:
 592 008a BF90      		pop r11
 593               	.LVL85:
 594 008c 0895      		ret
 595               	.LFE27:
 597               		.section	.text.Endpoint_Write_Stream_BE,"ax",@progbits
 598               	.global	Endpoint_Write_Stream_BE
 600               	Endpoint_Write_Stream_BE:
 601               	.LFB29:
 602               	.LSM76:
 603               	.LVL86:
 604 0000 DF92      		push r13
 605 0002 EF92      		push r14
 606 0004 FF92      		push r15
 607 0006 0F93      		push r16
 608 0008 1F93      		push r17
 609 000a CF93      		push r28
 610 000c DF93      		push r29
 611               	/* prologue: function */
 612               	/* frame size = 0 */
 613 000e 8C01      		movw r16,r24
 614 0010 EB01      		movw r28,r22
 615 0012 7A01      		movw r14,r20
 616               	.LSM77:
 617 0014 0E94 0000 		call Endpoint_WaitUntilReady
 618               	.LVL87:
 619 0018 D82E      		mov r13,r24
 620               	.LVL88:
 621 001a 8823      		tst r24
 622 001c 01F4      		brne .L62
 623               	.LVL89:
 624               	.LSM78:
 625 001e 2197      		sbiw r28,1
 626 0020 0C0F      		add r16,r28
 627 0022 1D1F      		adc r17,r29
 628               	.LVL90:
 629 0024 2196      		adiw r28,1
 630 0026 00C0      		rjmp .L69
 631               	.L67:
 632               	.LSM79:
 633 0028 8091 E800 		lds r24,232
 634               	.LVL91:
 635 002c 85FD      		sbrc r24,5
 636 002e 00C0      		rjmp .L64
 637               	.LBB102:
 638               	.LSM80:
 639 0030 8091 E800 		lds r24,232
 640               	.LVL92:
 641 0034 982F      		mov r25,r24
 642 0036 9E7F      		andi r25,lo8(-2)
 643 0038 9093 E800 		sts 232,r25
 644 003c 8F77      		andi r24,lo8(127)
 645 003e 8093 E800 		sts 232,r24
 646               	.LBE102:
 647               	.LSM81:
 648 0042 E114      		cp r14,__zero_reg__
 649 0044 F104      		cpc r15,__zero_reg__
 650 0046 01F0      		breq .L65
 651 0048 F701      		movw r30,r14
 652 004a 0995      		icall
 653               	.LVL93:
 654 004c 8130      		cpi r24,lo8(1)
 655 004e 01F4      		brne .L65
 656 0050 84E0      		ldi r24,lo8(4)
 657               	.LVL94:
 658 0052 00C0      		rjmp .L66
 659               	.LVL95:
 660               	.L65:
 661               	.LSM82:
 662 0054 0E94 0000 		call Endpoint_WaitUntilReady
 663               	.LVL96:
 664 0058 8823      		tst r24
 665 005a 01F0      		breq .L69
 666               	.LVL97:
 667 005c 00C0      		rjmp .L66
 668               	.LVL98:
 669               	.L64:
 670               	.LSM83:
 671 005e F801      		movw r30,r16
 672 0060 8081      		ld r24,Z
 673 0062 0150      		subi r16,lo8(-(-1))
 674 0064 1040      		sbci r17,hi8(-(-1))
 675               	.LBB103:
 676               	.LBB104:
 677               	.LSM84:
 678 0066 8093 F100 		sts 241,r24
 679               	.LBE104:
 680               	.LBE103:
 681               	.LSM85:
 682 006a 2197      		sbiw r28,1
 683               	.LVL99:
 684               	.L69:
 685               	.LSM86:
 686 006c 2097      		sbiw r28,0
 687 006e 01F4      		brne .L67
 688               	.LVL100:
 689               	.L62:
 690 0070 8D2D      		mov r24,r13
 691               	.L66:
 692               	.LVL101:
 693               	/* epilogue start */
 694               	.LSM87:
 695 0072 DF91      		pop r29
 696 0074 CF91      		pop r28
 697               	.LVL102:
 698 0076 1F91      		pop r17
 699 0078 0F91      		pop r16
 700               	.LVL103:
 701 007a FF90      		pop r15
 702 007c EF90      		pop r14
 703               	.LVL104:
 704 007e DF90      		pop r13
 705               	.LVL105:
 706 0080 0895      		ret
 707               	.LFE29:
 709               		.section	.text.Endpoint_Write_PStream_BE,"ax",@progbits
 710               	.global	Endpoint_Write_PStream_BE
 712               	Endpoint_Write_PStream_BE:
 713               	.LFB31:
 714               	.LSM88:
 715               	.LVL106:
 716 0000 DF92      		push r13
 717 0002 EF92      		push r14
 718 0004 FF92      		push r15
 719 0006 0F93      		push r16
 720 0008 1F93      		push r17
 721 000a CF93      		push r28
 722 000c DF93      		push r29
 723               	/* prologue: function */
 724               	/* frame size = 0 */
 725 000e 8C01      		movw r16,r24
 726 0010 EB01      		movw r28,r22
 727 0012 7A01      		movw r14,r20
 728               	.LSM89:
 729 0014 0E94 0000 		call Endpoint_WaitUntilReady
 730               	.LVL107:
 731 0018 D82E      		mov r13,r24
 732               	.LVL108:
 733 001a 8823      		tst r24
 734 001c 01F4      		brne .L71
 735               	.LVL109:
 736               	.LSM90:
 737 001e 2197      		sbiw r28,1
 738 0020 0C0F      		add r16,r28
 739 0022 1D1F      		adc r17,r29
 740               	.LVL110:
 741 0024 2196      		adiw r28,1
 742 0026 00C0      		rjmp .L78
 743               	.LVL111:
 744               	.L76:
 745               	.LSM91:
 746 0028 8091 E800 		lds r24,232
 747 002c 85FD      		sbrc r24,5
 748 002e 00C0      		rjmp .L73
 749               	.LBB105:
 750               	.LSM92:
 751 0030 8091 E800 		lds r24,232
 752               	.LVL112:
 753 0034 982F      		mov r25,r24
 754 0036 9E7F      		andi r25,lo8(-2)
 755 0038 9093 E800 		sts 232,r25
 756 003c 8F77      		andi r24,lo8(127)
 757 003e 8093 E800 		sts 232,r24
 758               	.LBE105:
 759               	.LSM93:
 760 0042 E114      		cp r14,__zero_reg__
 761 0044 F104      		cpc r15,__zero_reg__
 762 0046 01F0      		breq .L74
 763 0048 F701      		movw r30,r14
 764 004a 0995      		icall
 765               	.LVL113:
 766 004c 8130      		cpi r24,lo8(1)
 767 004e 01F4      		brne .L74
 768 0050 84E0      		ldi r24,lo8(4)
 769               	.LVL114:
 770 0052 00C0      		rjmp .L75
 771               	.LVL115:
 772               	.L74:
 773               	.LSM94:
 774 0054 0E94 0000 		call Endpoint_WaitUntilReady
 775               	.LVL116:
 776 0058 8823      		tst r24
 777 005a 01F0      		breq .L78
 778               	.LVL117:
 779 005c 00C0      		rjmp .L75
 780               	.LVL118:
 781               	.L73:
 782               	.LBB106:
 783               	.LSM95:
 784 005e F801      		movw r30,r16
 785               	.LVL119:
 786 0060 0150      		subi r16,lo8(-(-1))
 787 0062 1040      		sbci r17,hi8(-(-1))
 788               	/* #APP */
 789               	 ;  65 "../LUFA_100219/LUFA/Drivers/USB/LowLevel/Template/Template_Endpoint_RW.c" 1
 790 0064 E491      		lpm r30, Z
 791               		
 792               	 ;  0 "" 2
 793               	.LVL120:
 794               	/* #NOAPP */
 795               	.LBE106:
 796               	.LBB107:
 797               	.LBB108:
 798               	.LSM96:
 799 0066 E093 F100 		sts 241,r30
 800               	.LBE108:
 801               	.LBE107:
 802               	.LSM97:
 803 006a 2197      		sbiw r28,1
 804               	.LVL121:
 805               	.L78:
 806               	.LSM98:
 807 006c 2097      		sbiw r28,0
 808 006e 01F4      		brne .L76
 809               	.LVL122:
 810               	.L71:
 811 0070 8D2D      		mov r24,r13
 812               	.L75:
 813               	.LVL123:
 814               	/* epilogue start */
 815               	.LSM99:
 816 0072 DF91      		pop r29
 817 0074 CF91      		pop r28
 818               	.LVL124:
 819 0076 1F91      		pop r17
 820 0078 0F91      		pop r16
 821               	.LVL125:
 822 007a FF90      		pop r15
 823 007c EF90      		pop r14
 824               	.LVL126:
 825 007e DF90      		pop r13
 826               	.LVL127:
 827 0080 0895      		ret
 828               	.LFE31:
 830               		.section	.text.Endpoint_Read_Stream_LE,"ax",@progbits
 831               	.global	Endpoint_Read_Stream_LE
 833               	Endpoint_Read_Stream_LE:
 834               	.LFB32:
 835               	.LSM100:
 836               	.LVL128:
 837 0000 DF92      		push r13
 838 0002 EF92      		push r14
 839 0004 FF92      		push r15
 840 0006 0F93      		push r16
 841 0008 1F93      		push r17
 842 000a CF93      		push r28
 843 000c DF93      		push r29
 844               	/* prologue: function */
 845               	/* frame size = 0 */
 846 000e 182F      		mov r17,r24
 847 0010 092F      		mov r16,r25
 848               	.LVL129:
 849 0012 EB01      		movw r28,r22
 850 0014 7A01      		movw r14,r20
 851               	.LSM101:
 852 0016 0E94 0000 		call Endpoint_WaitUntilReady
 853               	.LVL130:
 854 001a D82E      		mov r13,r24
 855               	.LVL131:
 856 001c 8823      		tst r24
 857 001e 01F4      		brne .L80
 858               	.LVL132:
 859               	.LSM102:
 860 0020 812F      		mov r24,r17
 861               	.LVL133:
 862 0022 902F      		mov r25,r16
 863               	.LVL134:
 864 0024 9C01      		movw r18,r24
 865               	.LVL135:
 866 0026 8901      		movw r16,r18
 867               	.LVL136:
 868 0028 00C0      		rjmp .L87
 869               	.LVL137:
 870               	.L85:
 871               	.LSM103:
 872 002a 8091 E800 		lds r24,232
 873 002e 85FD      		sbrc r24,5
 874 0030 00C0      		rjmp .L82
 875               	.LBB109:
 876               	.LSM104:
 877 0032 8091 E800 		lds r24,232
 878               	.LVL138:
 879 0036 982F      		mov r25,r24
 880               	.LVL139:
 881 0038 9B7F      		andi r25,lo8(-5)
 882 003a 9093 E800 		sts 232,r25
 883 003e 8F77      		andi r24,lo8(127)
 884 0040 8093 E800 		sts 232,r24
 885               	.LBE109:
 886               	.LSM105:
 887 0044 E114      		cp r14,__zero_reg__
 888 0046 F104      		cpc r15,__zero_reg__
 889 0048 01F0      		breq .L83
 890 004a F701      		movw r30,r14
 891 004c 0995      		icall
 892               	.LVL140:
 893 004e 8130      		cpi r24,lo8(1)
 894 0050 01F4      		brne .L83
 895 0052 84E0      		ldi r24,lo8(4)
 896               	.LVL141:
 897 0054 00C0      		rjmp .L84
 898               	.LVL142:
 899               	.L83:
 900               	.LSM106:
 901 0056 0E94 0000 		call Endpoint_WaitUntilReady
 902               	.LVL143:
 903 005a 8823      		tst r24
 904 005c 01F0      		breq .L87
 905               	.LVL144:
 906 005e 00C0      		rjmp .L84
 907               	.LVL145:
 908               	.L82:
 909               	.LBB110:
 910               	.LBB111:
 911               	.LSM107:
 912 0060 8091 F100 		lds r24,241
 913               	.LBE111:
 914               	.LBE110:
 915               	.LSM108:
 916 0064 F801      		movw r30,r16
 917 0066 8193      		st Z+,r24
 918 0068 8F01      		movw r16,r30
 919               	.LSM109:
 920 006a 2197      		sbiw r28,1
 921               	.LVL146:
 922               	.L87:
 923               	.LSM110:
 924 006c 2097      		sbiw r28,0
 925 006e 01F4      		brne .L85
 926               	.LVL147:
 927               	.L80:
 928 0070 8D2D      		mov r24,r13
 929               	.L84:
 930               	.LVL148:
 931               	/* epilogue start */
 932               	.LSM111:
 933 0072 DF91      		pop r29
 934 0074 CF91      		pop r28
 935               	.LVL149:
 936 0076 1F91      		pop r17
 937               	.LVL150:
 938 0078 0F91      		pop r16
 939               	.LVL151:
 940 007a FF90      		pop r15
 941 007c EF90      		pop r14
 942               	.LVL152:
 943 007e DF90      		pop r13
 944               	.LVL153:
 945 0080 0895      		ret
 946               	.LFE32:
 948               		.section	.text.Endpoint_Read_Stream_BE,"ax",@progbits
 949               	.global	Endpoint_Read_Stream_BE
 951               	Endpoint_Read_Stream_BE:
 952               	.LFB34:
 953               	.LSM112:
 954               	.LVL154:
 955 0000 DF92      		push r13
 956 0002 EF92      		push r14
 957 0004 FF92      		push r15
 958 0006 0F93      		push r16
 959 0008 1F93      		push r17
 960 000a CF93      		push r28
 961 000c DF93      		push r29
 962               	/* prologue: function */
 963               	/* frame size = 0 */
 964 000e 8C01      		movw r16,r24
 965 0010 EB01      		movw r28,r22
 966 0012 7A01      		movw r14,r20
 967               	.LSM113:
 968 0014 0E94 0000 		call Endpoint_WaitUntilReady
 969               	.LVL155:
 970 0018 D82E      		mov r13,r24
 971               	.LVL156:
 972 001a 8823      		tst r24
 973 001c 01F4      		brne .L89
 974               	.LVL157:
 975               	.LSM114:
 976 001e 2197      		sbiw r28,1
 977 0020 0C0F      		add r16,r28
 978 0022 1D1F      		adc r17,r29
 979               	.LVL158:
 980 0024 2196      		adiw r28,1
 981 0026 00C0      		rjmp .L96
 982               	.L94:
 983               	.LSM115:
 984 0028 8091 E800 		lds r24,232
 985               	.LVL159:
 986 002c 85FD      		sbrc r24,5
 987 002e 00C0      		rjmp .L91
 988               	.LBB112:
 989               	.LSM116:
 990 0030 8091 E800 		lds r24,232
 991               	.LVL160:
 992 0034 982F      		mov r25,r24
 993 0036 9B7F      		andi r25,lo8(-5)
 994 0038 9093 E800 		sts 232,r25
 995 003c 8F77      		andi r24,lo8(127)
 996 003e 8093 E800 		sts 232,r24
 997               	.LBE112:
 998               	.LSM117:
 999 0042 E114      		cp r14,__zero_reg__
 1000 0044 F104      		cpc r15,__zero_reg__
 1001 0046 01F0      		breq .L92
 1002 0048 F701      		movw r30,r14
 1003 004a 0995      		icall
 1004               	.LVL161:
 1005 004c 8130      		cpi r24,lo8(1)
 1006 004e 01F4      		brne .L92
 1007 0050 84E0      		ldi r24,lo8(4)
 1008               	.LVL162:
 1009 0052 00C0      		rjmp .L93
 1010               	.LVL163:
 1011               	.L92:
 1012               	.LSM118:
 1013 0054 0E94 0000 		call Endpoint_WaitUntilReady
 1014               	.LVL164:
 1015 0058 8823      		tst r24
 1016 005a 01F0      		breq .L96
 1017               	.LVL165:
 1018 005c 00C0      		rjmp .L93
 1019               	.LVL166:
 1020               	.L91:
 1021               	.LBB113:
 1022               	.LBB114:
 1023               	.LSM119:
 1024 005e 8091 F100 		lds r24,241
 1025               	.LBE114:
 1026               	.LBE113:
 1027               	.LSM120:
 1028 0062 F801      		movw r30,r16
 1029 0064 8083      		st Z,r24
 1030 0066 0150      		subi r16,lo8(-(-1))
 1031 0068 1040      		sbci r17,hi8(-(-1))
 1032               	.LSM121:
 1033 006a 2197      		sbiw r28,1
 1034               	.LVL167:
 1035               	.L96:
 1036               	.LSM122:
 1037 006c 2097      		sbiw r28,0
 1038 006e 01F4      		brne .L94
 1039               	.LVL168:
 1040               	.L89:
 1041 0070 8D2D      		mov r24,r13
 1042               	.L93:
 1043               	.LVL169:
 1044               	/* epilogue start */
 1045               	.LSM123:
 1046 0072 DF91      		pop r29
 1047 0074 CF91      		pop r28
 1048               	.LVL170:
 1049 0076 1F91      		pop r17
 1050 0078 0F91      		pop r16
 1051               	.LVL171:
 1052 007a FF90      		pop r15
 1053 007c EF90      		pop r14
 1054               	.LVL172:
 1055 007e DF90      		pop r13
 1056               	.LVL173:
 1057 0080 0895      		ret
 1058               	.LFE34:
 1060               		.section	.text.Endpoint_Write_Control_Stream_LE,"ax",@progbits
 1061               	.global	Endpoint_Write_Control_Stream_LE
 1063               	Endpoint_Write_Control_Stream_LE:
 1064               	.LFB36:
 1065               	.LSM124:
 1066               	.LVL174:
 1067               	/* prologue: function */
 1068               	/* frame size = 0 */
 1069 0000 9C01      		movw r18,r24
 1070               	.LVL175:
 1071               	.LSM125:
 1072 0002 4091 0000 		lds r20,USB_ControlRequest+6
 1073 0006 5091 0000 		lds r21,(USB_ControlRequest+6)+1
 1074               	.LVL176:
 1075 000a 4617      		cp r20,r22
 1076 000c 5707      		cpc r21,r23
 1077 000e 00F4      		brsh .L98
 1078               	.LVL177:
 1079               	.L101:
 1080               	.LSM126:
 1081 0010 D901      		movw r26,r18
 1082               	.LVL178:
 1083 0012 E0E0      		ldi r30,lo8(0)
 1084               	.LVL179:
 1085 0014 00C0      		rjmp .L116
 1086               	.LVL180:
 1087               	.L98:
 1088               	.LSM127:
 1089 0016 6115      		cp r22,__zero_reg__
 1090 0018 7105      		cpc r23,__zero_reg__
 1091 001a 01F0      		breq .L100
 1092               	.LVL181:
 1093 001c AB01      		movw r20,r22
 1094 001e 00C0      		rjmp .L101
 1095               	.L100:
 1096               	.LBB115:
 1097               	.LSM128:
 1098 0020 8091 E800 		lds r24,232
 1099               	.LVL182:
 1100 0024 982F      		mov r25,r24
 1101 0026 9E7F      		andi r25,lo8(-2)
 1102 0028 9093 E800 		sts 232,r25
 1103 002c 8F77      		andi r24,lo8(127)
 1104 002e 8093 E800 		sts 232,r24
 1105 0032 40E0      		ldi r20,lo8(0)
 1106 0034 50E0      		ldi r21,hi8(0)
 1107               	.LVL183:
 1108 0036 00C0      		rjmp .L101
 1109               	.LVL184:
 1110               	.L110:
 1111               	.LBE115:
 1112               	.LSM129:
 1113 0038 8091 E800 		lds r24,232
 1114               	.LVL185:
 1115 003c 83FF      		sbrs r24,3
 1116 003e 00C0      		rjmp .L102
 1117 0040 81E0      		ldi r24,lo8(1)
 1118 0042 0895      		ret
 1119               	.L102:
 1120               	.LSM130:
 1121 0044 8091 E800 		lds r24,232
 1122 0048 82FD      		sbrc r24,2
 1123 004a 00C0      		rjmp .L114
 1124               	.LSM131:
 1125 004c 8091 0000 		lds r24,USB_DeviceState
 1126 0050 8823      		tst r24
 1127 0052 01F0      		breq .L105
 1128               	.LSM132:
 1129 0054 8091 E800 		lds r24,232
 1130 0058 80FF      		sbrs r24,0
 1131 005a 00C0      		rjmp .L116
 1132               	.LBB116:
 1133               	.LSM133:
 1134 005c 8091 F300 		lds r24,243
 1135 0060 9091 F200 		lds r25,242
 1136 0064 782F      		mov r23,r24
 1137 0066 60E0      		ldi r22,lo8(0)
 1138 0068 292F      		mov r18,r25
 1139               	.LVL186:
 1140 006a 30E0      		ldi r19,lo8(0)
 1141 006c 262B      		or r18,r22
 1142 006e 372B      		or r19,r23
 1143               	.LVL187:
 1144 0070 00C0      		rjmp .L106
 1145               	.L108:
 1146               	.LSM134:
 1147 0072 8D91      		ld r24,X+
 1148               	.LBB117:
 1149               	.LBB118:
 1150               	.LSM135:
 1151 0074 8093 F100 		sts 241,r24
 1152               	.LBE118:
 1153               	.LBE117:
 1154               	.LSM136:
 1155 0078 4150      		subi r20,lo8(-(-1))
 1156 007a 5040      		sbci r21,hi8(-(-1))
 1157               	.LSM137:
 1158 007c 2F5F      		subi r18,lo8(-(1))
 1159 007e 3F4F      		sbci r19,hi8(-(1))
 1160               	.L106:
 1161               	.LSM138:
 1162 0080 4115      		cp r20,__zero_reg__
 1163 0082 5105      		cpc r21,__zero_reg__
 1164 0084 01F0      		breq .L107
 1165 0086 2830      		cpi r18,8
 1166 0088 3105      		cpc r19,__zero_reg__
 1167 008a 00F0      		brlo .L108
 1168               	.L107:
 1169               	.LSM139:
 1170 008c E0E0      		ldi r30,lo8(0)
 1171 008e 2830      		cpi r18,8
 1172 0090 3105      		cpc r19,__zero_reg__
 1173 0092 01F4      		brne .L109
 1174 0094 E1E0      		ldi r30,lo8(1)
 1175               	.L109:
 1176               	.LBB119:
 1177               	.LSM140:
 1178 0096 8091 E800 		lds r24,232
 1179               	.LVL188:
 1180 009a 982F      		mov r25,r24
 1181 009c 9E7F      		andi r25,lo8(-2)
 1182 009e 9093 E800 		sts 232,r25
 1183 00a2 8F77      		andi r24,lo8(127)
 1184 00a4 8093 E800 		sts 232,r24
 1185               	.LVL189:
 1186               	.L116:
 1187               	.LBE119:
 1188               	.LBE116:
 1189               	.LSM141:
 1190 00a8 4115      		cp r20,__zero_reg__
 1191 00aa 5105      		cpc r21,__zero_reg__
 1192 00ac 01F4      		brne .L110
 1193 00ae EE23      		tst r30
 1194 00b0 01F4      		brne .L110
 1195 00b2 00C0      		rjmp .L114
 1196               	.LVL190:
 1197               	.L111:
 1198               	.LSM142:
 1199 00b4 8091 0000 		lds r24,USB_DeviceState
 1200 00b8 8823      		tst r24
 1201 00ba 01F0      		breq .L105
 1202               	.LVL191:
 1203               	.L114:
 1204               	.LSM143:
 1205 00bc 8091 E800 		lds r24,232
 1206               	.LVL192:
 1207 00c0 82FF      		sbrs r24,2
 1208 00c2 00C0      		rjmp .L111
 1209 00c4 80E0      		ldi r24,lo8(0)
 1210 00c6 0895      		ret
 1211               	.L105:
 1212 00c8 82E0      		ldi r24,lo8(2)
 1213               	.LSM144:
 1214 00ca 0895      		ret
 1215               	.LFE36:
 1217               		.section	.text.Endpoint_Write_Control_PStream_LE,"ax",@progbits
 1218               	.global	Endpoint_Write_Control_PStream_LE
 1220               	Endpoint_Write_Control_PStream_LE:
 1221               	.LFB37:
 1222               	.LSM145:
 1223               	.LVL193:
 1224               	/* prologue: function */
 1225               	/* frame size = 0 */
 1226 0000 9C01      		movw r18,r24
 1227               	.LVL194:
 1228               	.LSM146:
 1229 0002 4091 0000 		lds r20,USB_ControlRequest+6
 1230 0006 5091 0000 		lds r21,(USB_ControlRequest+6)+1
 1231               	.LVL195:
 1232 000a 4617      		cp r20,r22
 1233 000c 5707      		cpc r21,r23
 1234 000e 00F4      		brsh .L118
 1235               	.LVL196:
 1236               	.L121:
 1237               	.LSM147:
 1238 0010 E0E0      		ldi r30,lo8(0)
 1239               	.LVL197:
 1240 0012 00C0      		rjmp .L136
 1241               	.LVL198:
 1242               	.L118:
 1243               	.LSM148:
 1244 0014 6115      		cp r22,__zero_reg__
 1245 0016 7105      		cpc r23,__zero_reg__
 1246 0018 01F0      		breq .L120
 1247               	.LVL199:
 1248 001a AB01      		movw r20,r22
 1249 001c 00C0      		rjmp .L121
 1250               	.L120:
 1251               	.LBB120:
 1252               	.LSM149:
 1253 001e 8091 E800 		lds r24,232
 1254               	.LVL200:
 1255 0022 982F      		mov r25,r24
 1256 0024 9E7F      		andi r25,lo8(-2)
 1257 0026 9093 E800 		sts 232,r25
 1258 002a 8F77      		andi r24,lo8(127)
 1259 002c 8093 E800 		sts 232,r24
 1260 0030 40E0      		ldi r20,lo8(0)
 1261 0032 50E0      		ldi r21,hi8(0)
 1262               	.LVL201:
 1263 0034 00C0      		rjmp .L121
 1264               	.LVL202:
 1265               	.L130:
 1266               	.LBE120:
 1267               	.LSM150:
 1268 0036 8091 E800 		lds r24,232
 1269               	.LVL203:
 1270 003a 83FF      		sbrs r24,3
 1271 003c 00C0      		rjmp .L122
 1272 003e 81E0      		ldi r24,lo8(1)
 1273 0040 0895      		ret
 1274               	.L122:
 1275               	.LSM151:
 1276 0042 8091 E800 		lds r24,232
 1277 0046 82FD      		sbrc r24,2
 1278 0048 00C0      		rjmp .L134
 1279               	.LSM152:
 1280 004a 8091 0000 		lds r24,USB_DeviceState
 1281 004e 8823      		tst r24
 1282 0050 01F4      		brne .+2
 1283 0052 00C0      		rjmp .L125
 1284               	.LSM153:
 1285 0054 8091 E800 		lds r24,232
 1286 0058 80FF      		sbrs r24,0
 1287 005a 00C0      		rjmp .L136
 1288               	.LBB121:
 1289               	.LSM154:
 1290 005c 8091 F300 		lds r24,243
 1291 0060 9091 F200 		lds r25,242
 1292 0064 782F      		mov r23,r24
 1293 0066 60E0      		ldi r22,lo8(0)
 1294 0068 892F      		mov r24,r25
 1295               	.LVL204:
 1296 006a 90E0      		ldi r25,lo8(0)
 1297               	.LVL205:
 1298 006c 862B      		or r24,r22
 1299 006e 972B      		or r25,r23
 1300               	.LVL206:
 1301 0070 00C0      		rjmp .L126
 1302               	.LVL207:
 1303               	.L128:
 1304               	.LSM155:
 1305 0072 F901      		movw r30,r18
 1306               	.LVL208:
 1307               	.LBB122:
 1308               	.LSM156:
 1309 0074 2F5F      		subi r18,lo8(-(1))
 1310 0076 3F4F      		sbci r19,hi8(-(1))
 1311               	/* #APP */
 1312               	 ;  28 "../LUFA_100219/LUFA/Drivers/USB/LowLevel/Template/Template_Endpoint_Control_W.c" 1
 1313 0078 E491      		lpm r30, Z
 1314               		
 1315               	 ;  0 "" 2
 1316               	.LVL209:
 1317               	/* #NOAPP */
 1318               	.LBE122:
 1319               	.LBB123:
 1320               	.LBB124:
 1321               	.LSM157:
 1322 007a E093 F100 		sts 241,r30
 1323               	.LBE124:
 1324               	.LBE123:
 1325               	.LSM158:
 1326 007e 4150      		subi r20,lo8(-(-1))
 1327 0080 5040      		sbci r21,hi8(-(-1))
 1328               	.LSM159:
 1329 0082 0196      		adiw r24,1
 1330               	.LVL210:
 1331               	.L126:
 1332               	.LSM160:
 1333 0084 4115      		cp r20,__zero_reg__
 1334 0086 5105      		cpc r21,__zero_reg__
 1335 0088 01F0      		breq .L127
 1336 008a 8830      		cpi r24,8
 1337 008c 9105      		cpc r25,__zero_reg__
 1338 008e 00F0      		brlo .L128
 1339               	.L127:
 1340               	.LSM161:
 1341 0090 E0E0      		ldi r30,lo8(0)
 1342               	.LVL211:
 1343 0092 0897      		sbiw r24,8
 1344 0094 01F4      		brne .L129
 1345 0096 E1E0      		ldi r30,lo8(1)
 1346               	.L129:
 1347               	.LBB125:
 1348               	.LSM162:
 1349 0098 8091 E800 		lds r24,232
 1350               	.LVL212:
 1351 009c 982F      		mov r25,r24
 1352               	.LVL213:
 1353 009e 9E7F      		andi r25,lo8(-2)
 1354 00a0 9093 E800 		sts 232,r25
 1355 00a4 8F77      		andi r24,lo8(127)
 1356 00a6 8093 E800 		sts 232,r24
 1357               	.LVL214:
 1358               	.L136:
 1359               	.LBE125:
 1360               	.LBE121:
 1361               	.LSM163:
 1362 00aa 4115      		cp r20,__zero_reg__
 1363 00ac 5105      		cpc r21,__zero_reg__
 1364 00ae 01F0      		breq .+2
 1365 00b0 00C0      		rjmp .L130
 1366 00b2 EE23      		tst r30
 1367 00b4 01F0      		breq .+2
 1368 00b6 00C0      		rjmp .L130
 1369 00b8 00C0      		rjmp .L134
 1370               	.LVL215:
 1371               	.L131:
 1372               	.LSM164:
 1373 00ba 8091 0000 		lds r24,USB_DeviceState
 1374 00be 8823      		tst r24
 1375 00c0 01F0      		breq .L125
 1376               	.LVL216:
 1377               	.L134:
 1378               	.LSM165:
 1379 00c2 8091 E800 		lds r24,232
 1380               	.LVL217:
 1381 00c6 82FF      		sbrs r24,2
 1382 00c8 00C0      		rjmp .L131
 1383 00ca 80E0      		ldi r24,lo8(0)
 1384 00cc 0895      		ret
 1385               	.L125:
 1386 00ce 82E0      		ldi r24,lo8(2)
 1387               	.LSM166:
 1388 00d0 0895      		ret
 1389               	.LFE37:
 1391               		.section	.text.Endpoint_Write_Control_Stream_BE,"ax",@progbits
 1392               	.global	Endpoint_Write_Control_Stream_BE
 1394               	Endpoint_Write_Control_Stream_BE:
 1395               	.LFB39:
 1396               	.LSM167:
 1397               	.LVL218:
 1398               	/* prologue: function */
 1399               	/* frame size = 0 */
 1400 0000 9C01      		movw r18,r24
 1401               	.LSM168:
 1402 0002 4091 0000 		lds r20,USB_ControlRequest+6
 1403 0006 5091 0000 		lds r21,(USB_ControlRequest+6)+1
 1404               	.LVL219:
 1405 000a 4617      		cp r20,r22
 1406 000c 5707      		cpc r21,r23
 1407 000e 00F4      		brsh .L138
 1408               	.LVL220:
 1409               	.L141:
 1410               	.LSM169:
 1411 0010 FB01      		movw r30,r22
 1412               	.LVL221:
 1413 0012 3197      		sbiw r30,1
 1414 0014 E20F      		add r30,r18
 1415 0016 F31F      		adc r31,r19
 1416 0018 A0E0      		ldi r26,lo8(0)
 1417               	.LVL222:
 1418 001a 00C0      		rjmp .L156
 1419               	.LVL223:
 1420               	.L138:
 1421               	.LSM170:
 1422 001c 6115      		cp r22,__zero_reg__
 1423 001e 7105      		cpc r23,__zero_reg__
 1424 0020 01F0      		breq .L140
 1425               	.LVL224:
 1426 0022 AB01      		movw r20,r22
 1427 0024 00C0      		rjmp .L141
 1428               	.L140:
 1429               	.LBB126:
 1430               	.LSM171:
 1431 0026 8091 E800 		lds r24,232
 1432               	.LVL225:
 1433 002a 982F      		mov r25,r24
 1434 002c 9E7F      		andi r25,lo8(-2)
 1435 002e 9093 E800 		sts 232,r25
 1436 0032 8F77      		andi r24,lo8(127)
 1437 0034 8093 E800 		sts 232,r24
 1438 0038 40E0      		ldi r20,lo8(0)
 1439 003a 50E0      		ldi r21,hi8(0)
 1440               	.LVL226:
 1441 003c 00C0      		rjmp .L141
 1442               	.LVL227:
 1443               	.L150:
 1444               	.LBE126:
 1445               	.LSM172:
 1446 003e 8091 E800 		lds r24,232
 1447               	.LVL228:
 1448 0042 83FF      		sbrs r24,3
 1449 0044 00C0      		rjmp .L142
 1450 0046 81E0      		ldi r24,lo8(1)
 1451 0048 0895      		ret
 1452               	.L142:
 1453               	.LSM173:
 1454 004a 8091 E800 		lds r24,232
 1455 004e 82FD      		sbrc r24,2
 1456 0050 00C0      		rjmp .L154
 1457               	.LSM174:
 1458 0052 8091 0000 		lds r24,USB_DeviceState
 1459 0056 8823      		tst r24
 1460 0058 01F0      		breq .L145
 1461               	.LSM175:
 1462 005a 8091 E800 		lds r24,232
 1463 005e 80FF      		sbrs r24,0
 1464 0060 00C0      		rjmp .L156
 1465               	.LBB127:
 1466               	.LSM176:
 1467 0062 8091 F300 		lds r24,243
 1468 0066 9091 F200 		lds r25,242
 1469 006a 782F      		mov r23,r24
 1470 006c 60E0      		ldi r22,lo8(0)
 1471 006e 292F      		mov r18,r25
 1472               	.LVL229:
 1473 0070 30E0      		ldi r19,lo8(0)
 1474 0072 262B      		or r18,r22
 1475 0074 372B      		or r19,r23
 1476               	.LVL230:
 1477 0076 00C0      		rjmp .L146
 1478               	.L148:
 1479               	.LSM177:
 1480 0078 8081      		ld r24,Z
 1481 007a 3197      		sbiw r30,1
 1482               	.LBB128:
 1483               	.LBB129:
 1484               	.LSM178:
 1485 007c 8093 F100 		sts 241,r24
 1486               	.LBE129:
 1487               	.LBE128:
 1488               	.LSM179:
 1489 0080 4150      		subi r20,lo8(-(-1))
 1490 0082 5040      		sbci r21,hi8(-(-1))
 1491               	.LSM180:
 1492 0084 2F5F      		subi r18,lo8(-(1))
 1493 0086 3F4F      		sbci r19,hi8(-(1))
 1494               	.L146:
 1495               	.LSM181:
 1496 0088 4115      		cp r20,__zero_reg__
 1497 008a 5105      		cpc r21,__zero_reg__
 1498 008c 01F0      		breq .L147
 1499 008e 2830      		cpi r18,8
 1500 0090 3105      		cpc r19,__zero_reg__
 1501 0092 00F0      		brlo .L148
 1502               	.L147:
 1503               	.LSM182:
 1504 0094 A0E0      		ldi r26,lo8(0)
 1505 0096 2830      		cpi r18,8
 1506 0098 3105      		cpc r19,__zero_reg__
 1507 009a 01F4      		brne .L149
 1508 009c A1E0      		ldi r26,lo8(1)
 1509               	.L149:
 1510               	.LBB130:
 1511               	.LSM183:
 1512 009e 8091 E800 		lds r24,232
 1513               	.LVL231:
 1514 00a2 982F      		mov r25,r24
 1515 00a4 9E7F      		andi r25,lo8(-2)
 1516 00a6 9093 E800 		sts 232,r25
 1517 00aa 8F77      		andi r24,lo8(127)
 1518 00ac 8093 E800 		sts 232,r24
 1519               	.LVL232:
 1520               	.L156:
 1521               	.LBE130:
 1522               	.LBE127:
 1523               	.LSM184:
 1524 00b0 4115      		cp r20,__zero_reg__
 1525 00b2 5105      		cpc r21,__zero_reg__
 1526 00b4 01F4      		brne .L150
 1527 00b6 AA23      		tst r26
 1528 00b8 01F4      		brne .L150
 1529 00ba 00C0      		rjmp .L154
 1530               	.LVL233:
 1531               	.L151:
 1532               	.LSM185:
 1533 00bc 8091 0000 		lds r24,USB_DeviceState
 1534 00c0 8823      		tst r24
 1535 00c2 01F0      		breq .L145
 1536               	.LVL234:
 1537               	.L154:
 1538               	.LSM186:
 1539 00c4 8091 E800 		lds r24,232
 1540               	.LVL235:
 1541 00c8 82FF      		sbrs r24,2
 1542 00ca 00C0      		rjmp .L151
 1543 00cc 80E0      		ldi r24,lo8(0)
 1544 00ce 0895      		ret
 1545               	.L145:
 1546 00d0 82E0      		ldi r24,lo8(2)
 1547               	.LSM187:
 1548 00d2 0895      		ret
 1549               	.LFE39:
 1551               		.section	.text.Endpoint_Write_Control_PStream_BE,"ax",@progbits
 1552               	.global	Endpoint_Write_Control_PStream_BE
 1554               	Endpoint_Write_Control_PStream_BE:
 1555               	.LFB40:
 1556               	.LSM188:
 1557               	.LVL236:
 1558               	/* prologue: function */
 1559               	/* frame size = 0 */
 1560 0000 AC01      		movw r20,r24
 1561               	.LSM189:
 1562 0002 2091 0000 		lds r18,USB_ControlRequest+6
 1563 0006 3091 0000 		lds r19,(USB_ControlRequest+6)+1
 1564               	.LVL237:
 1565 000a 2617      		cp r18,r22
 1566 000c 3707      		cpc r19,r23
 1567 000e 00F4      		brsh .L158
 1568               	.LVL238:
 1569               	.L161:
 1570               	.LSM190:
 1571 0010 6150      		subi r22,lo8(-(-1))
 1572 0012 7040      		sbci r23,hi8(-(-1))
 1573               	.LVL239:
 1574 0014 640F      		add r22,r20
 1575 0016 751F      		adc r23,r21
 1576 0018 E0E0      		ldi r30,lo8(0)
 1577               	.LVL240:
 1578 001a 00C0      		rjmp .L176
 1579               	.LVL241:
 1580               	.L158:
 1581               	.LSM191:
 1582 001c 6115      		cp r22,__zero_reg__
 1583 001e 7105      		cpc r23,__zero_reg__
 1584 0020 01F0      		breq .L160
 1585               	.LVL242:
 1586 0022 9B01      		movw r18,r22
 1587 0024 00C0      		rjmp .L161
 1588               	.L160:
 1589               	.LBB131:
 1590               	.LSM192:
 1591 0026 8091 E800 		lds r24,232
 1592               	.LVL243:
 1593 002a 982F      		mov r25,r24
 1594 002c 9E7F      		andi r25,lo8(-2)
 1595 002e 9093 E800 		sts 232,r25
 1596 0032 8F77      		andi r24,lo8(127)
 1597 0034 8093 E800 		sts 232,r24
 1598 0038 20E0      		ldi r18,lo8(0)
 1599 003a 30E0      		ldi r19,hi8(0)
 1600               	.LVL244:
 1601 003c 00C0      		rjmp .L161
 1602               	.LVL245:
 1603               	.L170:
 1604               	.LBE131:
 1605               	.LSM193:
 1606 003e 8091 E800 		lds r24,232
 1607               	.LVL246:
 1608 0042 83FF      		sbrs r24,3
 1609 0044 00C0      		rjmp .L162
 1610 0046 81E0      		ldi r24,lo8(1)
 1611 0048 0895      		ret
 1612               	.L162:
 1613               	.LSM194:
 1614 004a 8091 E800 		lds r24,232
 1615 004e 82FD      		sbrc r24,2
 1616 0050 00C0      		rjmp .L174
 1617               	.LSM195:
 1618 0052 8091 0000 		lds r24,USB_DeviceState
 1619 0056 8823      		tst r24
 1620 0058 01F4      		brne .+2
 1621 005a 00C0      		rjmp .L165
 1622               	.LSM196:
 1623 005c 8091 E800 		lds r24,232
 1624 0060 80FF      		sbrs r24,0
 1625 0062 00C0      		rjmp .L176
 1626               	.LBB132:
 1627               	.LSM197:
 1628 0064 8091 F300 		lds r24,243
 1629 0068 9091 F200 		lds r25,242
 1630 006c 582F      		mov r21,r24
 1631 006e 40E0      		ldi r20,lo8(0)
 1632               	.LVL247:
 1633 0070 892F      		mov r24,r25
 1634               	.LVL248:
 1635 0072 90E0      		ldi r25,lo8(0)
 1636               	.LVL249:
 1637 0074 842B      		or r24,r20
 1638 0076 952B      		or r25,r21
 1639               	.LVL250:
 1640 0078 00C0      		rjmp .L166
 1641               	.LVL251:
 1642               	.L168:
 1643               	.LSM198:
 1644 007a FB01      		movw r30,r22
 1645               	.LVL252:
 1646               	.LBB133:
 1647               	.LSM199:
 1648 007c 6150      		subi r22,lo8(-(-1))
 1649 007e 7040      		sbci r23,hi8(-(-1))
 1650               	/* #APP */
 1651               	 ;  28 "../LUFA_100219/LUFA/Drivers/USB/LowLevel/Template/Template_Endpoint_Control_W.c" 1
 1652 0080 E491      		lpm r30, Z
 1653               		
 1654               	 ;  0 "" 2
 1655               	.LVL253:
 1656               	/* #NOAPP */
 1657               	.LBE133:
 1658               	.LBB134:
 1659               	.LBB135:
 1660               	.LSM200:
 1661 0082 E093 F100 		sts 241,r30
 1662               	.LBE135:
 1663               	.LBE134:
 1664               	.LSM201:
 1665 0086 2150      		subi r18,lo8(-(-1))
 1666 0088 3040      		sbci r19,hi8(-(-1))
 1667               	.LSM202:
 1668 008a 0196      		adiw r24,1
 1669               	.LVL254:
 1670               	.L166:
 1671               	.LSM203:
 1672 008c 2115      		cp r18,__zero_reg__
 1673 008e 3105      		cpc r19,__zero_reg__
 1674 0090 01F0      		breq .L167
 1675 0092 8830      		cpi r24,8
 1676 0094 9105      		cpc r25,__zero_reg__
 1677 0096 00F0      		brlo .L168
 1678               	.L167:
 1679               	.LSM204:
 1680 0098 E0E0      		ldi r30,lo8(0)
 1681               	.LVL255:
 1682 009a 0897      		sbiw r24,8
 1683 009c 01F4      		brne .L169
 1684 009e E1E0      		ldi r30,lo8(1)
 1685               	.L169:
 1686               	.LBB136:
 1687               	.LSM205:
 1688 00a0 8091 E800 		lds r24,232
 1689               	.LVL256:
 1690 00a4 982F      		mov r25,r24
 1691               	.LVL257:
 1692 00a6 9E7F      		andi r25,lo8(-2)
 1693 00a8 9093 E800 		sts 232,r25
 1694 00ac 8F77      		andi r24,lo8(127)
 1695 00ae 8093 E800 		sts 232,r24
 1696               	.LVL258:
 1697               	.L176:
 1698               	.LBE136:
 1699               	.LBE132:
 1700               	.LSM206:
 1701 00b2 2115      		cp r18,__zero_reg__
 1702 00b4 3105      		cpc r19,__zero_reg__
 1703 00b6 01F0      		breq .+2
 1704 00b8 00C0      		rjmp .L170
 1705 00ba EE23      		tst r30
 1706 00bc 01F0      		breq .+2
 1707 00be 00C0      		rjmp .L170
 1708 00c0 00C0      		rjmp .L174
 1709               	.LVL259:
 1710               	.L171:
 1711               	.LSM207:
 1712 00c2 8091 0000 		lds r24,USB_DeviceState
 1713 00c6 8823      		tst r24
 1714 00c8 01F0      		breq .L165
 1715               	.LVL260:
 1716               	.L174:
 1717               	.LSM208:
 1718 00ca 8091 E800 		lds r24,232
 1719               	.LVL261:
 1720 00ce 82FF      		sbrs r24,2
 1721 00d0 00C0      		rjmp .L171
 1722 00d2 80E0      		ldi r24,lo8(0)
 1723 00d4 0895      		ret
 1724               	.L165:
 1725 00d6 82E0      		ldi r24,lo8(2)
 1726               	.LSM209:
 1727 00d8 0895      		ret
 1728               	.LFE40:
 1730               		.section	.text.Endpoint_Read_Control_Stream_LE,"ax",@progbits
 1731               	.global	Endpoint_Read_Control_Stream_LE
 1733               	Endpoint_Read_Control_Stream_LE:
 1734               	.LFB42:
 1735               	.LSM210:
 1736               	.LVL262:
 1737               	/* prologue: function */
 1738               	/* frame size = 0 */
 1739 0000 9C01      		movw r18,r24
 1740               	.LVL263:
 1741               	.LSM211:
 1742 0002 6115      		cp r22,__zero_reg__
 1743 0004 7105      		cpc r23,__zero_reg__
 1744 0006 01F4      		brne .L178
 1745               	.LBB137:
 1746               	.LSM212:
 1747 0008 8091 E800 		lds r24,232
 1748               	.LVL264:
 1749 000c 982F      		mov r25,r24
 1750 000e 9B7F      		andi r25,lo8(-5)
 1751 0010 9093 E800 		sts 232,r25
 1752 0014 8F77      		andi r24,lo8(127)
 1753 0016 8093 E800 		sts 232,r24
 1754               	.L178:
 1755               	.LBE137:
 1756               	.LSM213:
 1757 001a F901      		movw r30,r18
 1758               	.LVL265:
 1759 001c 00C0      		rjmp .L179
 1760               	.LVL266:
 1761               	.L191:
 1762               	.LSM214:
 1763 001e 8091 E800 		lds r24,232
 1764               	.LVL267:
 1765 0022 83FF      		sbrs r24,3
 1766 0024 00C0      		rjmp .L180
 1767 0026 81E0      		ldi r24,lo8(1)
 1768 0028 0895      		ret
 1769               	.L180:
 1770               	.LSM215:
 1771 002a 8091 0000 		lds r24,USB_DeviceState
 1772 002e 8823      		tst r24
 1773 0030 01F0      		breq .L182
 1774               	.LSM216:
 1775 0032 8091 E800 		lds r24,232
 1776 0036 82FF      		sbrs r24,2
 1777 0038 00C0      		rjmp .L191
 1778 003a 00C0      		rjmp .L190
 1779               	.LVL268:
 1780               	.L186:
 1781               	.LBB138:
 1782               	.LBB139:
 1783               	.LSM217:
 1784 003c 8091 F100 		lds r24,241
 1785               	.LBE139:
 1786               	.LBE138:
 1787               	.LSM218:
 1788 0040 8193      		st Z+,r24
 1789               	.LSM219:
 1790 0042 6150      		subi r22,lo8(-(-1))
 1791 0044 7040      		sbci r23,hi8(-(-1))
 1792               	.LVL269:
 1793               	.LSM220:
 1794 0046 01F0      		breq .L185
 1795               	.LVL270:
 1796               	.L190:
 1797 0048 2091 F300 		lds r18,243
 1798 004c 8091 F200 		lds r24,242
 1799 0050 322F      		mov r19,r18
 1800 0052 20E0      		ldi r18,lo8(0)
 1801 0054 90E0      		ldi r25,lo8(0)
 1802 0056 822B      		or r24,r18
 1803 0058 932B      		or r25,r19
 1804 005a 892B      		or r24,r25
 1805 005c 01F4      		brne .L186
 1806               	.L185:
 1807               	.LBB140:
 1808               	.LSM221:
 1809 005e 8091 E800 		lds r24,232
 1810               	.LVL271:
 1811 0062 982F      		mov r25,r24
 1812 0064 9B7F      		andi r25,lo8(-5)
 1813 0066 9093 E800 		sts 232,r25
 1814 006a 8F77      		andi r24,lo8(127)
 1815 006c 8093 E800 		sts 232,r24
 1816               	.LVL272:
 1817               	.L179:
 1818               	.LBE140:
 1819               	.LSM222:
 1820 0070 6115      		cp r22,__zero_reg__
 1821 0072 7105      		cpc r23,__zero_reg__
 1822 0074 01F4      		brne .L191
 1823 0076 00C0      		rjmp .L192
 1824               	.LVL273:
 1825               	.L188:
 1826               	.LSM223:
 1827 0078 8091 0000 		lds r24,USB_DeviceState
 1828 007c 8823      		tst r24
 1829 007e 01F0      		breq .L182
 1830               	.LVL274:
 1831               	.L192:
 1832               	.LSM224:
 1833 0080 8091 E800 		lds r24,232
 1834               	.LVL275:
 1835 0084 80FF      		sbrs r24,0
 1836 0086 00C0      		rjmp .L188
 1837 0088 80E0      		ldi r24,lo8(0)
 1838 008a 0895      		ret
 1839               	.L182:
 1840 008c 82E0      		ldi r24,lo8(2)
 1841               	.LSM225:
 1842 008e 0895      		ret
 1843               	.LFE42:
 1845               		.section	.text.Endpoint_Read_Control_Stream_BE,"ax",@progbits
 1846               	.global	Endpoint_Read_Control_Stream_BE
 1848               	Endpoint_Read_Control_Stream_BE:
 1849               	.LFB44:
 1850               	.LSM226:
 1851               	.LVL276:
 1852               	/* prologue: function */
 1853               	/* frame size = 0 */
 1854 0000 9C01      		movw r18,r24
 1855               	.LSM227:
 1856 0002 6115      		cp r22,__zero_reg__
 1857 0004 7105      		cpc r23,__zero_reg__
 1858 0006 01F0      		breq .L194
 1859               	.LVL277:
 1860 0008 AB01      		movw r20,r22
 1861 000a 00C0      		rjmp .L195
 1862               	.LVL278:
 1863               	.L194:
 1864               	.LBB141:
 1865               	.LSM228:
 1866 000c 8091 E800 		lds r24,232
 1867               	.LVL279:
 1868 0010 982F      		mov r25,r24
 1869 0012 9B7F      		andi r25,lo8(-5)
 1870 0014 9093 E800 		sts 232,r25
 1871 0018 8F77      		andi r24,lo8(127)
 1872 001a 8093 E800 		sts 232,r24
 1873 001e 40E0      		ldi r20,lo8(0)
 1874 0020 50E0      		ldi r21,hi8(0)
 1875               	.LVL280:
 1876               	.L195:
 1877               	.LBE141:
 1878               	.LSM229:
 1879 0022 FB01      		movw r30,r22
 1880               	.LVL281:
 1881 0024 3197      		sbiw r30,1
 1882 0026 E20F      		add r30,r18
 1883 0028 F31F      		adc r31,r19
 1884 002a 00C0      		rjmp .L196
 1885               	.LVL282:
 1886               	.L208:
 1887               	.LSM230:
 1888 002c 8091 E800 		lds r24,232
 1889               	.LVL283:
 1890 0030 83FF      		sbrs r24,3
 1891 0032 00C0      		rjmp .L197
 1892 0034 81E0      		ldi r24,lo8(1)
 1893 0036 0895      		ret
 1894               	.L197:
 1895               	.LSM231:
 1896 0038 8091 0000 		lds r24,USB_DeviceState
 1897 003c 8823      		tst r24
 1898 003e 01F0      		breq .L199
 1899               	.LSM232:
 1900 0040 8091 E800 		lds r24,232
 1901 0044 82FF      		sbrs r24,2
 1902 0046 00C0      		rjmp .L208
 1903 0048 00C0      		rjmp .L207
 1904               	.LVL284:
 1905               	.L203:
 1906               	.LBB142:
 1907               	.LBB143:
 1908               	.LSM233:
 1909 004a 8091 F100 		lds r24,241
 1910               	.LBE143:
 1911               	.LBE142:
 1912               	.LSM234:
 1913 004e 8083      		st Z,r24
 1914 0050 3197      		sbiw r30,1
 1915               	.LSM235:
 1916 0052 4150      		subi r20,lo8(-(-1))
 1917 0054 5040      		sbci r21,hi8(-(-1))
 1918               	.LSM236:
 1919 0056 01F0      		breq .L202
 1920               	.LVL285:
 1921               	.L207:
 1922 0058 2091 F300 		lds r18,243
 1923               	.LVL286:
 1924 005c 8091 F200 		lds r24,242
 1925 0060 322F      		mov r19,r18
 1926 0062 20E0      		ldi r18,lo8(0)
 1927 0064 90E0      		ldi r25,lo8(0)
 1928 0066 822B      		or r24,r18
 1929 0068 932B      		or r25,r19
 1930 006a 892B      		or r24,r25
 1931 006c 01F4      		brne .L203
 1932               	.L202:
 1933               	.LBB144:
 1934               	.LSM237:
 1935 006e 8091 E800 		lds r24,232
 1936               	.LVL287:
 1937 0072 982F      		mov r25,r24
 1938 0074 9B7F      		andi r25,lo8(-5)
 1939 0076 9093 E800 		sts 232,r25
 1940 007a 8F77      		andi r24,lo8(127)
 1941 007c 8093 E800 		sts 232,r24
 1942               	.LVL288:
 1943               	.L196:
 1944               	.LBE144:
 1945               	.LSM238:
 1946 0080 4115      		cp r20,__zero_reg__
 1947 0082 5105      		cpc r21,__zero_reg__
 1948 0084 01F4      		brne .L208
 1949 0086 00C0      		rjmp .L209
 1950               	.LVL289:
 1951               	.L205:
 1952               	.LSM239:
 1953 0088 8091 0000 		lds r24,USB_DeviceState
 1954 008c 8823      		tst r24
 1955 008e 01F0      		breq .L199
 1956               	.LVL290:
 1957               	.L209:
 1958               	.LSM240:
 1959 0090 8091 E800 		lds r24,232
 1960               	.LVL291:
 1961 0094 80FF      		sbrs r24,0
 1962 0096 00C0      		rjmp .L205
 1963 0098 80E0      		ldi r24,lo8(0)
 1964 009a 0895      		ret
 1965               	.L199:
 1966 009c 82E0      		ldi r24,lo8(2)
 1967               	.LSM241:
 1968 009e 0895      		ret
 1969               	.LFE44:
 1971               		.section	.text.Endpoint_Read_Control_EStream_BE,"ax",@progbits
 1972               	.global	Endpoint_Read_Control_EStream_BE
 1974               	Endpoint_Read_Control_EStream_BE:
 1975               	.LFB45:
 1976               	.LSM242:
 1977               	.LVL292:
 1978 0000 EF92      		push r14
 1979 0002 FF92      		push r15
 1980 0004 0F93      		push r16
 1981 0006 1F93      		push r17
 1982 0008 CF93      		push r28
 1983 000a DF93      		push r29
 1984               	/* prologue: function */
 1985               	/* frame size = 0 */
 1986 000c 9C01      		movw r18,r24
 1987               	.LSM243:
 1988 000e 6115      		cp r22,__zero_reg__
 1989 0010 7105      		cpc r23,__zero_reg__
 1990 0012 01F0      		breq .L211
 1991               	.LVL293:
 1992 0014 7B01      		movw r14,r22
 1993 0016 00C0      		rjmp .L212
 1994               	.LVL294:
 1995               	.L211:
 1996               	.LBB145:
 1997               	.LSM244:
 1998 0018 8091 E800 		lds r24,232
 1999               	.LVL295:
 2000 001c 982F      		mov r25,r24
 2001 001e 9B7F      		andi r25,lo8(-5)
 2002 0020 9093 E800 		sts 232,r25
 2003 0024 8F77      		andi r24,lo8(127)
 2004 0026 8093 E800 		sts 232,r24
 2005 002a EE24      		clr r14
 2006 002c FF24      		clr r15
 2007               	.LVL296:
 2008               	.L212:
 2009               	.LBE145:
 2010               	.LSM245:
 2011 002e AB01      		movw r20,r22
 2012               	.LVL297:
 2013 0030 4150      		subi r20,lo8(-(-1))
 2014 0032 5040      		sbci r21,hi8(-(-1))
 2015 0034 420F      		add r20,r18
 2016 0036 531F      		adc r21,r19
 2017 0038 00C0      		rjmp .L213
 2018               	.LVL298:
 2019               	.L225:
 2020               	.LSM246:
 2021 003a 8091 E800 		lds r24,232
 2022               	.LVL299:
 2023 003e 83FF      		sbrs r24,3
 2024 0040 00C0      		rjmp .L214
 2025 0042 81E0      		ldi r24,lo8(1)
 2026 0044 00C0      		rjmp .L215
 2027               	.L214:
 2028               	.LSM247:
 2029 0046 8091 0000 		lds r24,USB_DeviceState
 2030 004a 8823      		tst r24
 2031 004c 01F0      		breq .L216
 2032               	.LSM248:
 2033 004e 8091 E800 		lds r24,232
 2034 0052 82FF      		sbrs r24,2
 2035 0054 00C0      		rjmp .L225
 2036 0056 00C0      		rjmp .L224
 2037               	.LVL300:
 2038               	.L220:
 2039               	.LSM249:
 2040 0058 EA01      		movw r28,r20
 2041 005a 2197      		sbiw r28,1
 2042               	.LVL301:
 2043               	.LBB146:
 2044               	.LBB147:
 2045               	.LSM250:
 2046 005c 6091 F100 		lds r22,241
 2047               	.LBE147:
 2048               	.LBE146:
 2049               	.LSM251:
 2050 0060 CA01      		movw r24,r20
 2051 0062 0E94 0000 		call __eewr_byte_m32u4
 2052               	.LSM252:
 2053 0066 0894      		sec
 2054 0068 E108      		sbc r14,__zero_reg__
 2055 006a F108      		sbc r15,__zero_reg__
 2056               	.LSM253:
 2057 006c E114      		cp r14,__zero_reg__
 2058 006e F104      		cpc r15,__zero_reg__
 2059 0070 01F0      		breq .L219
 2060 0072 AE01      		movw r20,r28
 2061               	.LVL302:
 2062               	.L224:
 2063 0074 2091 F300 		lds r18,243
 2064               	.LVL303:
 2065 0078 8091 F200 		lds r24,242
 2066 007c 122F      		mov r17,r18
 2067 007e 00E0      		ldi r16,lo8(0)
 2068 0080 90E0      		ldi r25,lo8(0)
 2069 0082 802B      		or r24,r16
 2070 0084 912B      		or r25,r17
 2071 0086 892B      		or r24,r25
 2072 0088 01F4      		brne .L220
 2073 008a EA01      		movw r28,r20
 2074               	.LVL304:
 2075               	.L219:
 2076               	.LBB148:
 2077               	.LSM254:
 2078 008c 8091 E800 		lds r24,232
 2079               	.LVL305:
 2080 0090 982F      		mov r25,r24
 2081 0092 9B7F      		andi r25,lo8(-5)
 2082 0094 9093 E800 		sts 232,r25
 2083 0098 8F77      		andi r24,lo8(127)
 2084 009a 8093 E800 		sts 232,r24
 2085 009e AE01      		movw r20,r28
 2086               	.LVL306:
 2087               	.L213:
 2088               	.LBE148:
 2089               	.LSM255:
 2090 00a0 E114      		cp r14,__zero_reg__
 2091 00a2 F104      		cpc r15,__zero_reg__
 2092 00a4 01F4      		brne .L225
 2093 00a6 00C0      		rjmp .L226
 2094               	.LVL307:
 2095               	.L222:
 2096               	.LSM256:
 2097 00a8 8091 0000 		lds r24,USB_DeviceState
 2098 00ac 8823      		tst r24
 2099 00ae 01F0      		breq .L216
 2100               	.LVL308:
 2101               	.L226:
 2102               	.LSM257:
 2103 00b0 8091 E800 		lds r24,232
 2104               	.LVL309:
 2105 00b4 80FF      		sbrs r24,0
 2106 00b6 00C0      		rjmp .L222
 2107 00b8 80E0      		ldi r24,lo8(0)
 2108 00ba 00C0      		rjmp .L215
 2109               	.L216:
 2110 00bc 82E0      		ldi r24,lo8(2)
 2111               	.L215:
 2112               	/* epilogue start */
 2113               	.LSM258:
 2114 00be DF91      		pop r29
 2115 00c0 CF91      		pop r28
 2116 00c2 1F91      		pop r17
 2117 00c4 0F91      		pop r16
 2118 00c6 FF90      		pop r15
 2119 00c8 EF90      		pop r14
 2120               	.LVL310:
 2121 00ca 0895      		ret
 2122               	.LFE45:
 2124               		.section	.text.Endpoint_Read_Control_EStream_LE,"ax",@progbits
 2125               	.global	Endpoint_Read_Control_EStream_LE
 2127               	Endpoint_Read_Control_EStream_LE:
 2128               	.LFB43:
 2129               	.LSM259:
 2130               	.LVL311:
 2131 0000 EF92      		push r14
 2132 0002 FF92      		push r15
 2133 0004 0F93      		push r16
 2134 0006 1F93      		push r17
 2135 0008 CF93      		push r28
 2136 000a DF93      		push r29
 2137               	/* prologue: function */
 2138               	/* frame size = 0 */
 2139 000c 9C01      		movw r18,r24
 2140               	.LVL312:
 2141 000e 7B01      		movw r14,r22
 2142               	.LSM260:
 2143 0010 6115      		cp r22,__zero_reg__
 2144 0012 7105      		cpc r23,__zero_reg__
 2145 0014 01F4      		brne .L228
 2146               	.LBB149:
 2147               	.LSM261:
 2148 0016 8091 E800 		lds r24,232
 2149               	.LVL313:
 2150 001a 982F      		mov r25,r24
 2151 001c 9B7F      		andi r25,lo8(-5)
 2152 001e 9093 E800 		sts 232,r25
 2153 0022 8F77      		andi r24,lo8(127)
 2154 0024 8093 E800 		sts 232,r24
 2155               	.L228:
 2156               	.LBE149:
 2157               	.LSM262:
 2158 0028 A901      		movw r20,r18
 2159               	.LVL314:
 2160 002a 00C0      		rjmp .L229
 2161               	.LVL315:
 2162               	.L241:
 2163               	.LSM263:
 2164 002c 8091 E800 		lds r24,232
 2165               	.LVL316:
 2166 0030 83FF      		sbrs r24,3
 2167 0032 00C0      		rjmp .L230
 2168 0034 81E0      		ldi r24,lo8(1)
 2169 0036 00C0      		rjmp .L231
 2170               	.L230:
 2171               	.LSM264:
 2172 0038 8091 0000 		lds r24,USB_DeviceState
 2173 003c 8823      		tst r24
 2174 003e 01F0      		breq .L232
 2175               	.LSM265:
 2176 0040 8091 E800 		lds r24,232
 2177 0044 82FF      		sbrs r24,2
 2178 0046 00C0      		rjmp .L241
 2179 0048 00C0      		rjmp .L240
 2180               	.LVL317:
 2181               	.L236:
 2182               	.LSM266:
 2183 004a EA01      		movw r28,r20
 2184 004c 2196      		adiw r28,1
 2185               	.LVL318:
 2186               	.LBB150:
 2187               	.LBB151:
 2188               	.LSM267:
 2189 004e 6091 F100 		lds r22,241
 2190               	.LBE151:
 2191               	.LBE150:
 2192               	.LSM268:
 2193 0052 CA01      		movw r24,r20
 2194 0054 0E94 0000 		call __eewr_byte_m32u4
 2195               	.LSM269:
 2196 0058 0894      		sec
 2197 005a E108      		sbc r14,__zero_reg__
 2198 005c F108      		sbc r15,__zero_reg__
 2199               	.LSM270:
 2200 005e E114      		cp r14,__zero_reg__
 2201 0060 F104      		cpc r15,__zero_reg__
 2202 0062 01F0      		breq .L235
 2203 0064 AE01      		movw r20,r28
 2204               	.LVL319:
 2205               	.L240:
 2206 0066 2091 F300 		lds r18,243
 2207 006a 8091 F200 		lds r24,242
 2208 006e 122F      		mov r17,r18
 2209 0070 00E0      		ldi r16,lo8(0)
 2210 0072 90E0      		ldi r25,lo8(0)
 2211 0074 802B      		or r24,r16
 2212 0076 912B      		or r25,r17
 2213 0078 892B      		or r24,r25
 2214 007a 01F4      		brne .L236
 2215 007c EA01      		movw r28,r20
 2216               	.LVL320:
 2217               	.L235:
 2218               	.LBB152:
 2219               	.LSM271:
 2220 007e 8091 E800 		lds r24,232
 2221               	.LVL321:
 2222 0082 982F      		mov r25,r24
 2223 0084 9B7F      		andi r25,lo8(-5)
 2224 0086 9093 E800 		sts 232,r25
 2225 008a 8F77      		andi r24,lo8(127)
 2226 008c 8093 E800 		sts 232,r24
 2227 0090 AE01      		movw r20,r28
 2228               	.LVL322:
 2229               	.L229:
 2230               	.LBE152:
 2231               	.LSM272:
 2232 0092 E114      		cp r14,__zero_reg__
 2233 0094 F104      		cpc r15,__zero_reg__
 2234 0096 01F4      		brne .L241
 2235 0098 00C0      		rjmp .L242
 2236               	.LVL323:
 2237               	.L238:
 2238               	.LSM273:
 2239 009a 8091 0000 		lds r24,USB_DeviceState
 2240 009e 8823      		tst r24
 2241 00a0 01F0      		breq .L232
 2242               	.LVL324:
 2243               	.L242:
 2244               	.LSM274:
 2245 00a2 8091 E800 		lds r24,232
 2246               	.LVL325:
 2247 00a6 80FF      		sbrs r24,0
 2248 00a8 00C0      		rjmp .L238
 2249 00aa 80E0      		ldi r24,lo8(0)
 2250 00ac 00C0      		rjmp .L231
 2251               	.L232:
 2252 00ae 82E0      		ldi r24,lo8(2)
 2253               	.L231:
 2254               	/* epilogue start */
 2255               	.LSM275:
 2256 00b0 DF91      		pop r29
 2257 00b2 CF91      		pop r28
 2258 00b4 1F91      		pop r17
 2259 00b6 0F91      		pop r16
 2260 00b8 FF90      		pop r15
 2261 00ba EF90      		pop r14
 2262               	.LVL326:
 2263 00bc 0895      		ret
 2264               	.LFE43:
 2266               		.section	.text.Endpoint_Read_EStream_BE,"ax",@progbits
 2267               	.global	Endpoint_Read_EStream_BE
 2269               	Endpoint_Read_EStream_BE:
 2270               	.LFB35:
 2271               	.LSM276:
 2272               	.LVL327:
 2273 0000 BF92      		push r11
 2274 0002 CF92      		push r12
 2275 0004 DF92      		push r13
 2276 0006 EF92      		push r14
 2277 0008 FF92      		push r15
 2278 000a 0F93      		push r16
 2279 000c 1F93      		push r17
 2280 000e CF93      		push r28
 2281 0010 DF93      		push r29
 2282               	/* prologue: function */
 2283               	/* frame size = 0 */
 2284 0012 7C01      		movw r14,r24
 2285 0014 EB01      		movw r28,r22
 2286 0016 6A01      		movw r12,r20
 2287               	.LSM277:
 2288 0018 0E94 0000 		call Endpoint_WaitUntilReady
 2289               	.LVL328:
 2290 001c B82E      		mov r11,r24
 2291               	.LVL329:
 2292 001e 8823      		tst r24
 2293 0020 01F4      		brne .L244
 2294               	.LVL330:
 2295               	.LSM278:
 2296 0022 2197      		sbiw r28,1
 2297 0024 EC0E      		add r14,r28
 2298 0026 FD1E      		adc r15,r29
 2299               	.LVL331:
 2300 0028 2196      		adiw r28,1
 2301 002a 00C0      		rjmp .L251
 2302               	.LVL332:
 2303               	.L249:
 2304               	.LSM279:
 2305 002c 8091 E800 		lds r24,232
 2306 0030 85FD      		sbrc r24,5
 2307 0032 00C0      		rjmp .L246
 2308               	.LBB153:
 2309               	.LSM280:
 2310 0034 8091 E800 		lds r24,232
 2311               	.LVL333:
 2312 0038 982F      		mov r25,r24
 2313 003a 9B7F      		andi r25,lo8(-5)
 2314 003c 9093 E800 		sts 232,r25
 2315 0040 8F77      		andi r24,lo8(127)
 2316 0042 8093 E800 		sts 232,r24
 2317               	.LBE153:
 2318               	.LSM281:
 2319 0046 C114      		cp r12,__zero_reg__
 2320 0048 D104      		cpc r13,__zero_reg__
 2321 004a 01F0      		breq .L247
 2322 004c F601      		movw r30,r12
 2323 004e 0995      		icall
 2324               	.LVL334:
 2325 0050 8130      		cpi r24,lo8(1)
 2326 0052 01F4      		brne .L247
 2327 0054 84E0      		ldi r24,lo8(4)
 2328               	.LVL335:
 2329 0056 00C0      		rjmp .L248
 2330               	.LVL336:
 2331               	.L247:
 2332               	.LSM282:
 2333 0058 0E94 0000 		call Endpoint_WaitUntilReady
 2334               	.LVL337:
 2335 005c 8823      		tst r24
 2336 005e 01F0      		breq .L251
 2337               	.LVL338:
 2338 0060 00C0      		rjmp .L248
 2339               	.LVL339:
 2340               	.L246:
 2341               	.LSM283:
 2342 0062 8701      		movw r16,r14
 2343 0064 0150      		subi r16,lo8(-(-1))
 2344 0066 1040      		sbci r17,hi8(-(-1))
 2345               	.LVL340:
 2346               	.LBB154:
 2347               	.LBB155:
 2348               	.LSM284:
 2349 0068 6091 F100 		lds r22,241
 2350               	.LBE155:
 2351               	.LBE154:
 2352               	.LSM285:
 2353 006c C701      		movw r24,r14
 2354 006e 0E94 0000 		call __eewr_byte_m32u4
 2355               	.LSM286:
 2356 0072 2197      		sbiw r28,1
 2357 0074 7801      		movw r14,r16
 2358               	.LVL341:
 2359               	.L251:
 2360               	.LSM287:
 2361 0076 2097      		sbiw r28,0
 2362 0078 01F4      		brne .L249
 2363               	.LVL342:
 2364               	.L244:
 2365 007a 8B2D      		mov r24,r11
 2366               	.L248:
 2367               	.LVL343:
 2368               	/* epilogue start */
 2369               	.LSM288:
 2370 007c DF91      		pop r29
 2371 007e CF91      		pop r28
 2372               	.LVL344:
 2373 0080 1F91      		pop r17
 2374 0082 0F91      		pop r16
 2375 0084 FF90      		pop r15
 2376 0086 EF90      		pop r14
 2377               	.LVL345:
 2378 0088 DF90      		pop r13
 2379 008a CF90      		pop r12
 2380               	.LVL346:
 2381 008c BF90      		pop r11
 2382               	.LVL347:
 2383 008e 0895      		ret
 2384               	.LFE35:
 2386               		.section	.text.Endpoint_Read_EStream_LE,"ax",@progbits
 2387               	.global	Endpoint_Read_EStream_LE
 2389               	Endpoint_Read_EStream_LE:
 2390               	.LFB33:
 2391               	.LSM289:
 2392               	.LVL348:
 2393 0000 BF92      		push r11
 2394 0002 CF92      		push r12
 2395 0004 DF92      		push r13
 2396 0006 EF92      		push r14
 2397 0008 FF92      		push r15
 2398 000a 0F93      		push r16
 2399 000c 1F93      		push r17
 2400 000e CF93      		push r28
 2401 0010 DF93      		push r29
 2402               	/* prologue: function */
 2403               	/* frame size = 0 */
 2404 0012 8C01      		movw r16,r24
 2405               	.LVL349:
 2406 0014 7B01      		movw r14,r22
 2407 0016 6A01      		movw r12,r20
 2408               	.LSM290:
 2409 0018 0E94 0000 		call Endpoint_WaitUntilReady
 2410               	.LVL350:
 2411 001c B82E      		mov r11,r24
 2412               	.LVL351:
 2413 001e 8823      		tst r24
 2414 0020 01F4      		brne .L253
 2415               	.LVL352:
 2416               	.LSM291:
 2417 0022 E801      		movw r28,r16
 2418               	.LVL353:
 2419 0024 00C0      		rjmp .L260
 2420               	.LVL354:
 2421               	.L258:
 2422               	.LSM292:
 2423 0026 8091 E800 		lds r24,232
 2424               	.LVL355:
 2425 002a 85FD      		sbrc r24,5
 2426 002c 00C0      		rjmp .L255
 2427               	.LBB156:
 2428               	.LSM293:
 2429 002e 8091 E800 		lds r24,232
 2430               	.LVL356:
 2431 0032 982F      		mov r25,r24
 2432 0034 9B7F      		andi r25,lo8(-5)
 2433 0036 9093 E800 		sts 232,r25
 2434 003a 8F77      		andi r24,lo8(127)
 2435 003c 8093 E800 		sts 232,r24
 2436               	.LBE156:
 2437               	.LSM294:
 2438 0040 C114      		cp r12,__zero_reg__
 2439 0042 D104      		cpc r13,__zero_reg__
 2440 0044 01F0      		breq .L256
 2441 0046 F601      		movw r30,r12
 2442 0048 0995      		icall
 2443               	.LVL357:
 2444 004a 8130      		cpi r24,lo8(1)
 2445 004c 01F4      		brne .L256
 2446 004e 84E0      		ldi r24,lo8(4)
 2447               	.LVL358:
 2448 0050 00C0      		rjmp .L257
 2449               	.LVL359:
 2450               	.L256:
 2451               	.LSM295:
 2452 0052 0E94 0000 		call Endpoint_WaitUntilReady
 2453               	.LVL360:
 2454 0056 8823      		tst r24
 2455 0058 01F0      		breq .L260
 2456               	.LVL361:
 2457 005a 00C0      		rjmp .L257
 2458               	.LVL362:
 2459               	.L255:
 2460               	.LSM296:
 2461 005c 8E01      		movw r16,r28
 2462 005e 0F5F      		subi r16,lo8(-(1))
 2463 0060 1F4F      		sbci r17,hi8(-(1))
 2464               	.LVL363:
 2465               	.LBB157:
 2466               	.LBB158:
 2467               	.LSM297:
 2468 0062 6091 F100 		lds r22,241
 2469               	.LBE158:
 2470               	.LBE157:
 2471               	.LSM298:
 2472 0066 CE01      		movw r24,r28
 2473 0068 0E94 0000 		call __eewr_byte_m32u4
 2474               	.LSM299:
 2475 006c 0894      		sec
 2476 006e E108      		sbc r14,__zero_reg__
 2477 0070 F108      		sbc r15,__zero_reg__
 2478 0072 E801      		movw r28,r16
 2479               	.LVL364:
 2480               	.L260:
 2481               	.LSM300:
 2482 0074 E114      		cp r14,__zero_reg__
 2483 0076 F104      		cpc r15,__zero_reg__
 2484 0078 01F4      		brne .L258
 2485               	.LVL365:
 2486               	.L253:
 2487 007a 8B2D      		mov r24,r11
 2488               	.L257:
 2489               	.LVL366:
 2490               	/* epilogue start */
 2491               	.LSM301:
 2492 007c DF91      		pop r29
 2493 007e CF91      		pop r28
 2494               	.LVL367:
 2495 0080 1F91      		pop r17
 2496 0082 0F91      		pop r16
 2497               	.LVL368:
 2498 0084 FF90      		pop r15
 2499 0086 EF90      		pop r14
 2500               	.LVL369:
 2501 0088 DF90      		pop r13
 2502 008a CF90      		pop r12
 2503               	.LVL370:
 2504 008c BF90      		pop r11
 2505               	.LVL371:
 2506 008e 0895      		ret
 2507               	.LFE33:
 2509               		.section	.text.Endpoint_Write_Control_EStream_BE,"ax",@progbits
 2510               	.global	Endpoint_Write_Control_EStream_BE
 2512               	Endpoint_Write_Control_EStream_BE:
 2513               	.LFB41:
 2514               	.LSM302:
 2515               	.LVL372:
 2516 0000 CF92      		push r12
 2517 0002 DF92      		push r13
 2518 0004 EF92      		push r14
 2519 0006 FF92      		push r15
 2520 0008 0F93      		push r16
 2521 000a 1F93      		push r17
 2522 000c CF93      		push r28
 2523 000e DF93      		push r29
 2524               	/* prologue: function */
 2525               	/* frame size = 0 */
 2526 0010 9C01      		movw r18,r24
 2527               	.LSM303:
 2528 0012 E090 0000 		lds r14,USB_ControlRequest+6
 2529 0016 F090 0000 		lds r15,(USB_ControlRequest+6)+1
 2530               	.LVL373:
 2531 001a E616      		cp r14,r22
 2532 001c F706      		cpc r15,r23
 2533 001e 00F4      		brsh .L262
 2534               	.LVL374:
 2535               	.L265:
 2536               	.LSM304:
 2537 0020 6150      		subi r22,lo8(-(-1))
 2538 0022 7040      		sbci r23,hi8(-(-1))
 2539               	.LVL375:
 2540 0024 620F      		add r22,r18
 2541 0026 731F      		adc r23,r19
 2542 0028 20E0      		ldi r18,lo8(0)
 2543               	.LVL376:
 2544 002a 00C0      		rjmp .L280
 2545               	.LVL377:
 2546               	.L262:
 2547               	.LSM305:
 2548 002c 6115      		cp r22,__zero_reg__
 2549 002e 7105      		cpc r23,__zero_reg__
 2550 0030 01F0      		breq .L264
 2551               	.LVL378:
 2552 0032 7B01      		movw r14,r22
 2553 0034 00C0      		rjmp .L265
 2554               	.L264:
 2555               	.LBB159:
 2556               	.LSM306:
 2557 0036 8091 E800 		lds r24,232
 2558               	.LVL379:
 2559 003a 982F      		mov r25,r24
 2560 003c 9E7F      		andi r25,lo8(-2)
 2561 003e 9093 E800 		sts 232,r25
 2562 0042 8F77      		andi r24,lo8(127)
 2563 0044 8093 E800 		sts 232,r24
 2564 0048 EE24      		clr r14
 2565 004a FF24      		clr r15
 2566               	.LVL380:
 2567 004c 00C0      		rjmp .L265
 2568               	.LVL381:
 2569               	.L274:
 2570               	.LBE159:
 2571               	.LSM307:
 2572 004e 8091 E800 		lds r24,232
 2573               	.LVL382:
 2574 0052 83FF      		sbrs r24,3
 2575 0054 00C0      		rjmp .L266
 2576 0056 81E0      		ldi r24,lo8(1)
 2577 0058 00C0      		rjmp .L267
 2578               	.L266:
 2579               	.LSM308:
 2580 005a 8091 E800 		lds r24,232
 2581 005e 82FD      		sbrc r24,2
 2582 0060 00C0      		rjmp .L278
 2583               	.LSM309:
 2584 0062 8091 0000 		lds r24,USB_DeviceState
 2585 0066 8823      		tst r24
 2586 0068 01F4      		brne .+2
 2587 006a 00C0      		rjmp .L269
 2588               	.LSM310:
 2589 006c 8091 E800 		lds r24,232
 2590 0070 80FF      		sbrs r24,0
 2591 0072 00C0      		rjmp .L280
 2592               	.LBB160:
 2593               	.LSM311:
 2594 0074 8091 F300 		lds r24,243
 2595 0078 9091 F200 		lds r25,242
 2596 007c D82E      		mov r13,r24
 2597 007e CC24      		clr r12
 2598 0080 C92F      		mov r28,r25
 2599               	.LVL383:
 2600 0082 D0E0      		ldi r29,lo8(0)
 2601 0084 CC29      		or r28,r12
 2602 0086 DD29      		or r29,r13
 2603               	.LVL384:
 2604 0088 00C0      		rjmp .L270
 2605               	.L272:
 2606               	.LSM312:
 2607 008a 8B01      		movw r16,r22
 2608 008c 0150      		subi r16,lo8(-(-1))
 2609 008e 1040      		sbci r17,hi8(-(-1))
 2610               	.LVL385:
 2611 0090 CB01      		movw r24,r22
 2612 0092 0E94 0000 		call __eerd_byte_m32u4
 2613               	.LVL386:
 2614               	.LBB161:
 2615               	.LBB162:
 2616               	.LSM313:
 2617 0096 8093 F100 		sts 241,r24
 2618               	.LBE162:
 2619               	.LBE161:
 2620               	.LSM314:
 2621 009a 0894      		sec
 2622 009c E108      		sbc r14,__zero_reg__
 2623 009e F108      		sbc r15,__zero_reg__
 2624               	.LSM315:
 2625 00a0 2196      		adiw r28,1
 2626 00a2 B801      		movw r22,r16
 2627               	.LVL387:
 2628               	.L270:
 2629               	.LSM316:
 2630 00a4 E114      		cp r14,__zero_reg__
 2631 00a6 F104      		cpc r15,__zero_reg__
 2632 00a8 01F0      		breq .L271
 2633 00aa C830      		cpi r28,8
 2634 00ac D105      		cpc r29,__zero_reg__
 2635 00ae 00F0      		brlo .L272
 2636               	.L271:
 2637               	.LSM317:
 2638 00b0 20E0      		ldi r18,lo8(0)
 2639 00b2 2897      		sbiw r28,8
 2640 00b4 01F4      		brne .L273
 2641 00b6 21E0      		ldi r18,lo8(1)
 2642               	.L273:
 2643               	.LBB163:
 2644               	.LSM318:
 2645 00b8 8091 E800 		lds r24,232
 2646               	.LVL388:
 2647 00bc 982F      		mov r25,r24
 2648 00be 9E7F      		andi r25,lo8(-2)
 2649 00c0 9093 E800 		sts 232,r25
 2650 00c4 8F77      		andi r24,lo8(127)
 2651 00c6 8093 E800 		sts 232,r24
 2652               	.LVL389:
 2653               	.L280:
 2654               	.LBE163:
 2655               	.LBE160:
 2656               	.LSM319:
 2657 00ca E114      		cp r14,__zero_reg__
 2658 00cc F104      		cpc r15,__zero_reg__
 2659 00ce 01F0      		breq .+2
 2660 00d0 00C0      		rjmp .L274
 2661 00d2 2223      		tst r18
 2662 00d4 01F0      		breq .+2
 2663 00d6 00C0      		rjmp .L274
 2664 00d8 00C0      		rjmp .L278
 2665               	.LVL390:
 2666               	.L275:
 2667               	.LSM320:
 2668 00da 8091 0000 		lds r24,USB_DeviceState
 2669 00de 8823      		tst r24
 2670 00e0 01F0      		breq .L269
 2671               	.LVL391:
 2672               	.L278:
 2673               	.LSM321:
 2674 00e2 8091 E800 		lds r24,232
 2675               	.LVL392:
 2676 00e6 82FF      		sbrs r24,2
 2677 00e8 00C0      		rjmp .L275
 2678 00ea 80E0      		ldi r24,lo8(0)
 2679 00ec 00C0      		rjmp .L267
 2680               	.L269:
 2681 00ee 82E0      		ldi r24,lo8(2)
 2682               	.L267:
 2683               	/* epilogue start */
 2684               	.LSM322:
 2685 00f0 DF91      		pop r29
 2686               	.LVL393:
 2687 00f2 CF91      		pop r28
 2688               	.LVL394:
 2689 00f4 1F91      		pop r17
 2690 00f6 0F91      		pop r16
 2691 00f8 FF90      		pop r15
 2692 00fa EF90      		pop r14
 2693               	.LVL395:
 2694 00fc DF90      		pop r13
 2695 00fe CF90      		pop r12
 2696 0100 0895      		ret
 2697               	.LFE41:
 2699               		.section	.text.Endpoint_Write_Control_EStream_LE,"ax",@progbits
 2700               	.global	Endpoint_Write_Control_EStream_LE
 2702               	Endpoint_Write_Control_EStream_LE:
 2703               	.LFB38:
 2704               	.LSM323:
 2705               	.LVL396:
 2706 0000 CF92      		push r12
 2707 0002 DF92      		push r13
 2708 0004 EF92      		push r14
 2709 0006 FF92      		push r15
 2710 0008 0F93      		push r16
 2711 000a 1F93      		push r17
 2712 000c CF93      		push r28
 2713 000e DF93      		push r29
 2714               	/* prologue: function */
 2715               	/* frame size = 0 */
 2716 0010 9C01      		movw r18,r24
 2717               	.LVL397:
 2718               	.LSM324:
 2719 0012 E090 0000 		lds r14,USB_ControlRequest+6
 2720 0016 F090 0000 		lds r15,(USB_ControlRequest+6)+1
 2721               	.LVL398:
 2722 001a E616      		cp r14,r22
 2723 001c F706      		cpc r15,r23
 2724 001e 00F4      		brsh .L282
 2725               	.LVL399:
 2726               	.L285:
 2727               	.LSM325:
 2728 0020 40E0      		ldi r20,lo8(0)
 2729               	.LVL400:
 2730 0022 00C0      		rjmp .L300
 2731               	.LVL401:
 2732               	.L282:
 2733               	.LSM326:
 2734 0024 6115      		cp r22,__zero_reg__
 2735 0026 7105      		cpc r23,__zero_reg__
 2736 0028 01F0      		breq .L284
 2737               	.LVL402:
 2738 002a 7B01      		movw r14,r22
 2739 002c 00C0      		rjmp .L285
 2740               	.L284:
 2741               	.LBB164:
 2742               	.LSM327:
 2743 002e 8091 E800 		lds r24,232
 2744               	.LVL403:
 2745 0032 982F      		mov r25,r24
 2746 0034 9E7F      		andi r25,lo8(-2)
 2747 0036 9093 E800 		sts 232,r25
 2748 003a 8F77      		andi r24,lo8(127)
 2749 003c 8093 E800 		sts 232,r24
 2750 0040 EE24      		clr r14
 2751 0042 FF24      		clr r15
 2752               	.LVL404:
 2753 0044 00C0      		rjmp .L285
 2754               	.LVL405:
 2755               	.L294:
 2756               	.LBE164:
 2757               	.LSM328:
 2758 0046 8091 E800 		lds r24,232
 2759               	.LVL406:
 2760 004a 83FF      		sbrs r24,3
 2761 004c 00C0      		rjmp .L286
 2762 004e 81E0      		ldi r24,lo8(1)
 2763 0050 00C0      		rjmp .L287
 2764               	.L286:
 2765               	.LSM329:
 2766 0052 8091 E800 		lds r24,232
 2767 0056 82FD      		sbrc r24,2
 2768 0058 00C0      		rjmp .L298
 2769               	.LSM330:
 2770 005a 8091 0000 		lds r24,USB_DeviceState
 2771 005e 8823      		tst r24
 2772 0060 01F4      		brne .+2
 2773 0062 00C0      		rjmp .L289
 2774               	.LSM331:
 2775 0064 8091 E800 		lds r24,232
 2776 0068 80FF      		sbrs r24,0
 2777 006a 00C0      		rjmp .L300
 2778               	.LBB165:
 2779               	.LSM332:
 2780 006c 8091 F300 		lds r24,243
 2781 0070 9091 F200 		lds r25,242
 2782 0074 D82E      		mov r13,r24
 2783 0076 CC24      		clr r12
 2784 0078 C92F      		mov r28,r25
 2785               	.LVL407:
 2786 007a D0E0      		ldi r29,lo8(0)
 2787 007c CC29      		or r28,r12
 2788 007e DD29      		or r29,r13
 2789               	.LVL408:
 2790 0080 00C0      		rjmp .L290
 2791               	.L292:
 2792               	.LSM333:
 2793 0082 8901      		movw r16,r18
 2794 0084 0F5F      		subi r16,lo8(-(1))
 2795 0086 1F4F      		sbci r17,hi8(-(1))
 2796               	.LVL409:
 2797 0088 C901      		movw r24,r18
 2798 008a 0E94 0000 		call __eerd_byte_m32u4
 2799               	.LVL410:
 2800               	.LBB166:
 2801               	.LBB167:
 2802               	.LSM334:
 2803 008e 8093 F100 		sts 241,r24
 2804               	.LBE167:
 2805               	.LBE166:
 2806               	.LSM335:
 2807 0092 0894      		sec
 2808 0094 E108      		sbc r14,__zero_reg__
 2809 0096 F108      		sbc r15,__zero_reg__
 2810               	.LSM336:
 2811 0098 2196      		adiw r28,1
 2812 009a 9801      		movw r18,r16
 2813               	.LVL411:
 2814               	.L290:
 2815               	.LSM337:
 2816 009c E114      		cp r14,__zero_reg__
 2817 009e F104      		cpc r15,__zero_reg__
 2818 00a0 01F0      		breq .L291
 2819 00a2 C830      		cpi r28,8
 2820 00a4 D105      		cpc r29,__zero_reg__
 2821 00a6 00F0      		brlo .L292
 2822               	.L291:
 2823               	.LSM338:
 2824 00a8 40E0      		ldi r20,lo8(0)
 2825 00aa 2897      		sbiw r28,8
 2826 00ac 01F4      		brne .L293
 2827 00ae 41E0      		ldi r20,lo8(1)
 2828               	.L293:
 2829               	.LBB168:
 2830               	.LSM339:
 2831 00b0 8091 E800 		lds r24,232
 2832               	.LVL412:
 2833 00b4 982F      		mov r25,r24
 2834 00b6 9E7F      		andi r25,lo8(-2)
 2835 00b8 9093 E800 		sts 232,r25
 2836 00bc 8F77      		andi r24,lo8(127)
 2837 00be 8093 E800 		sts 232,r24
 2838               	.LVL413:
 2839               	.L300:
 2840               	.LBE168:
 2841               	.LBE165:
 2842               	.LSM340:
 2843 00c2 E114      		cp r14,__zero_reg__
 2844 00c4 F104      		cpc r15,__zero_reg__
 2845 00c6 01F0      		breq .+2
 2846 00c8 00C0      		rjmp .L294
 2847 00ca 4423      		tst r20
 2848 00cc 01F0      		breq .+2
 2849 00ce 00C0      		rjmp .L294
 2850 00d0 00C0      		rjmp .L298
 2851               	.LVL414:
 2852               	.L295:
 2853               	.LSM341:
 2854 00d2 8091 0000 		lds r24,USB_DeviceState
 2855 00d6 8823      		tst r24
 2856 00d8 01F0      		breq .L289
 2857               	.LVL415:
 2858               	.L298:
 2859               	.LSM342:
 2860 00da 8091 E800 		lds r24,232
 2861               	.LVL416:
 2862 00de 82FF      		sbrs r24,2
 2863 00e0 00C0      		rjmp .L295
 2864 00e2 80E0      		ldi r24,lo8(0)
 2865 00e4 00C0      		rjmp .L287
 2866               	.L289:
 2867 00e6 82E0      		ldi r24,lo8(2)
 2868               	.L287:
 2869               	/* epilogue start */
 2870               	.LSM343:
 2871 00e8 DF91      		pop r29
 2872               	.LVL417:
 2873 00ea CF91      		pop r28
 2874               	.LVL418:
 2875 00ec 1F91      		pop r17
 2876 00ee 0F91      		pop r16
 2877 00f0 FF90      		pop r15
 2878 00f2 EF90      		pop r14
 2879               	.LVL419:
 2880 00f4 DF90      		pop r13
 2881 00f6 CF90      		pop r12
 2882 00f8 0895      		ret
 2883               	.LFE38:
 2885               		.section	.text.Endpoint_Write_EStream_BE,"ax",@progbits
 2886               	.global	Endpoint_Write_EStream_BE
 2888               	Endpoint_Write_EStream_BE:
 2889               	.LFB30:
 2890               	.LSM344:
 2891               	.LVL420:
 2892 0000 BF92      		push r11
 2893 0002 CF92      		push r12
 2894 0004 DF92      		push r13
 2895 0006 EF92      		push r14
 2896 0008 FF92      		push r15
 2897 000a 0F93      		push r16
 2898 000c 1F93      		push r17
 2899 000e CF93      		push r28
 2900 0010 DF93      		push r29
 2901               	/* prologue: function */
 2902               	/* frame size = 0 */
 2903 0012 7C01      		movw r14,r24
 2904 0014 EB01      		movw r28,r22
 2905 0016 6A01      		movw r12,r20
 2906               	.LSM345:
 2907 0018 0E94 0000 		call Endpoint_WaitUntilReady
 2908               	.LVL421:
 2909 001c B82E      		mov r11,r24
 2910               	.LVL422:
 2911 001e 8823      		tst r24
 2912 0020 01F4      		brne .L302
 2913               	.LVL423:
 2914               	.LSM346:
 2915 0022 2197      		sbiw r28,1
 2916 0024 EC0E      		add r14,r28
 2917 0026 FD1E      		adc r15,r29
 2918               	.LVL424:
 2919 0028 2196      		adiw r28,1
 2920 002a 00C0      		rjmp .L309
 2921               	.LVL425:
 2922               	.L307:
 2923               	.LSM347:
 2924 002c 8091 E800 		lds r24,232
 2925 0030 85FD      		sbrc r24,5
 2926 0032 00C0      		rjmp .L304
 2927               	.LBB169:
 2928               	.LSM348:
 2929 0034 8091 E800 		lds r24,232
 2930               	.LVL426:
 2931 0038 982F      		mov r25,r24
 2932 003a 9E7F      		andi r25,lo8(-2)
 2933 003c 9093 E800 		sts 232,r25
 2934 0040 8F77      		andi r24,lo8(127)
 2935 0042 8093 E800 		sts 232,r24
 2936               	.LBE169:
 2937               	.LSM349:
 2938 0046 C114      		cp r12,__zero_reg__
 2939 0048 D104      		cpc r13,__zero_reg__
 2940 004a 01F0      		breq .L305
 2941 004c F601      		movw r30,r12
 2942 004e 0995      		icall
 2943               	.LVL427:
 2944 0050 8130      		cpi r24,lo8(1)
 2945 0052 01F4      		brne .L305
 2946 0054 84E0      		ldi r24,lo8(4)
 2947               	.LVL428:
 2948 0056 00C0      		rjmp .L306
 2949               	.LVL429:
 2950               	.L305:
 2951               	.LSM350:
 2952 0058 0E94 0000 		call Endpoint_WaitUntilReady
 2953               	.LVL430:
 2954 005c 8823      		tst r24
 2955 005e 01F0      		breq .L309
 2956               	.LVL431:
 2957 0060 00C0      		rjmp .L306
 2958               	.LVL432:
 2959               	.L304:
 2960               	.LSM351:
 2961 0062 8701      		movw r16,r14
 2962 0064 0150      		subi r16,lo8(-(-1))
 2963 0066 1040      		sbci r17,hi8(-(-1))
 2964               	.LVL433:
 2965 0068 C701      		movw r24,r14
 2966 006a 0E94 0000 		call __eerd_byte_m32u4
 2967               	.LBB170:
 2968               	.LBB171:
 2969               	.LSM352:
 2970 006e 8093 F100 		sts 241,r24
 2971               	.LBE171:
 2972               	.LBE170:
 2973               	.LSM353:
 2974 0072 2197      		sbiw r28,1
 2975 0074 7801      		movw r14,r16
 2976               	.LVL434:
 2977               	.L309:
 2978               	.LSM354:
 2979 0076 2097      		sbiw r28,0
 2980 0078 01F4      		brne .L307
 2981               	.LVL435:
 2982               	.L302:
 2983 007a 8B2D      		mov r24,r11
 2984               	.L306:
 2985               	.LVL436:
 2986               	/* epilogue start */
 2987               	.LSM355:
 2988 007c DF91      		pop r29
 2989 007e CF91      		pop r28
 2990               	.LVL437:
 2991 0080 1F91      		pop r17
 2992 0082 0F91      		pop r16
 2993 0084 FF90      		pop r15
 2994 0086 EF90      		pop r14
 2995               	.LVL438:
 2996 0088 DF90      		pop r13
 2997 008a CF90      		pop r12
 2998               	.LVL439:
 2999 008c BF90      		pop r11
 3000               	.LVL440:
 3001 008e 0895      		ret
 3002               	.LFE30:
 3004               		.section	.text.Endpoint_Write_EStream_LE,"ax",@progbits
 3005               	.global	Endpoint_Write_EStream_LE
 3007               	Endpoint_Write_EStream_LE:
 3008               	.LFB28:
 3009               	.LSM356:
 3010               	.LVL441:
 3011 0000 BF92      		push r11
 3012 0002 CF92      		push r12
 3013 0004 DF92      		push r13
 3014 0006 EF92      		push r14
 3015 0008 FF92      		push r15
 3016 000a 0F93      		push r16
 3017 000c 1F93      		push r17
 3018 000e CF93      		push r28
 3019 0010 DF93      		push r29
 3020               	/* prologue: function */
 3021               	/* frame size = 0 */
 3022 0012 8C01      		movw r16,r24
 3023               	.LVL442:
 3024 0014 7B01      		movw r14,r22
 3025 0016 6A01      		movw r12,r20
 3026               	.LSM357:
 3027 0018 0E94 0000 		call Endpoint_WaitUntilReady
 3028               	.LVL443:
 3029 001c B82E      		mov r11,r24
 3030               	.LVL444:
 3031 001e 8823      		tst r24
 3032 0020 01F4      		brne .L311
 3033               	.LVL445:
 3034               	.LSM358:
 3035 0022 E801      		movw r28,r16
 3036               	.LVL446:
 3037 0024 00C0      		rjmp .L318
 3038               	.LVL447:
 3039               	.L316:
 3040               	.LSM359:
 3041 0026 8091 E800 		lds r24,232
 3042               	.LVL448:
 3043 002a 85FD      		sbrc r24,5
 3044 002c 00C0      		rjmp .L313
 3045               	.LBB172:
 3046               	.LSM360:
 3047 002e 8091 E800 		lds r24,232
 3048               	.LVL449:
 3049 0032 982F      		mov r25,r24
 3050 0034 9E7F      		andi r25,lo8(-2)
 3051 0036 9093 E800 		sts 232,r25
 3052 003a 8F77      		andi r24,lo8(127)
 3053 003c 8093 E800 		sts 232,r24
 3054               	.LBE172:
 3055               	.LSM361:
 3056 0040 C114      		cp r12,__zero_reg__
 3057 0042 D104      		cpc r13,__zero_reg__
 3058 0044 01F0      		breq .L314
 3059 0046 F601      		movw r30,r12
 3060 0048 0995      		icall
 3061               	.LVL450:
 3062 004a 8130      		cpi r24,lo8(1)
 3063 004c 01F4      		brne .L314
 3064 004e 84E0      		ldi r24,lo8(4)
 3065               	.LVL451:
 3066 0050 00C0      		rjmp .L315
 3067               	.LVL452:
 3068               	.L314:
 3069               	.LSM362:
 3070 0052 0E94 0000 		call Endpoint_WaitUntilReady
 3071               	.LVL453:
 3072 0056 8823      		tst r24
 3073 0058 01F0      		breq .L318
 3074               	.LVL454:
 3075 005a 00C0      		rjmp .L315
 3076               	.LVL455:
 3077               	.L313:
 3078               	.LSM363:
 3079 005c 8E01      		movw r16,r28
 3080 005e 0F5F      		subi r16,lo8(-(1))
 3081 0060 1F4F      		sbci r17,hi8(-(1))
 3082               	.LVL456:
 3083 0062 CE01      		movw r24,r28
 3084 0064 0E94 0000 		call __eerd_byte_m32u4
 3085               	.LBB173:
 3086               	.LBB174:
 3087               	.LSM364:
 3088 0068 8093 F100 		sts 241,r24
 3089               	.LBE174:
 3090               	.LBE173:
 3091               	.LSM365:
 3092 006c 0894      		sec
 3093 006e E108      		sbc r14,__zero_reg__
 3094 0070 F108      		sbc r15,__zero_reg__
 3095 0072 E801      		movw r28,r16
 3096               	.LVL457:
 3097               	.L318:
 3098               	.LSM366:
 3099 0074 E114      		cp r14,__zero_reg__
 3100 0076 F104      		cpc r15,__zero_reg__
 3101 0078 01F4      		brne .L316
 3102               	.LVL458:
 3103               	.L311:
 3104 007a 8B2D      		mov r24,r11
 3105               	.L315:
 3106               	.LVL459:
 3107               	/* epilogue start */
 3108               	.LSM367:
 3109 007c DF91      		pop r29
 3110 007e CF91      		pop r28
 3111               	.LVL460:
 3112 0080 1F91      		pop r17
 3113 0082 0F91      		pop r16
 3114               	.LVL461:
 3115 0084 FF90      		pop r15
 3116 0086 EF90      		pop r14
 3117               	.LVL462:
 3118 0088 DF90      		pop r13
 3119 008a CF90      		pop r12
 3120               	.LVL463:
 3121 008c BF90      		pop r11
 3122               	.LVL464:
 3123 008e 0895      		ret
 3124               	.LFE28:
 3350               	.Letext0:
DEFINED SYMBOLS
                            *ABS*:00000000 Endpoint.c
C:\Users\andz\AppData\Local\Temp/ccoo0EBh.s:2      *ABS*:0000003f __SREG__
C:\Users\andz\AppData\Local\Temp/ccoo0EBh.s:3      *ABS*:0000003e __SP_H__
C:\Users\andz\AppData\Local\Temp/ccoo0EBh.s:4      *ABS*:0000003d __SP_L__
C:\Users\andz\AppData\Local\Temp/ccoo0EBh.s:5      *ABS*:00000034 __CCP__
C:\Users\andz\AppData\Local\Temp/ccoo0EBh.s:6      *ABS*:00000000 __tmp_reg__
C:\Users\andz\AppData\Local\Temp/ccoo0EBh.s:7      *ABS*:00000001 __zero_reg__
C:\Users\andz\AppData\Local\Temp/ccoo0EBh.s:19     .text.Endpoint_BytesToEPSizeMaskDynamic:00000000 Endpoint_BytesToEPSizeMaskDynamic
C:\Users\andz\AppData\Local\Temp/ccoo0EBh.s:59     .text.Endpoint_ConfigureEndpoint_Prv:00000000 Endpoint_ConfigureEndpoint_Prv
C:\Users\andz\AppData\Local\Temp/ccoo0EBh.s:91     .text.Endpoint_ClearEndpoints:00000000 Endpoint_ClearEndpoints
C:\Users\andz\AppData\Local\Temp/ccoo0EBh.s:129    .text.Endpoint_ClearStatusStage:00000000 Endpoint_ClearStatusStage
C:\Users\andz\AppData\Local\Temp/ccoo0EBh.s:188    .text.Endpoint_WaitUntilReady:00000000 Endpoint_WaitUntilReady
C:\Users\andz\AppData\Local\Temp/ccoo0EBh.s:251    .text.Endpoint_Discard_Stream:00000000 Endpoint_Discard_Stream
C:\Users\andz\AppData\Local\Temp/ccoo0EBh.s:348    .text.Endpoint_Write_Stream_LE:00000000 Endpoint_Write_Stream_LE
C:\Users\andz\AppData\Local\Temp/ccoo0EBh.s:466    .text.Endpoint_Write_PStream_LE:00000000 Endpoint_Write_PStream_LE
C:\Users\andz\AppData\Local\Temp/ccoo0EBh.s:600    .text.Endpoint_Write_Stream_BE:00000000 Endpoint_Write_Stream_BE
C:\Users\andz\AppData\Local\Temp/ccoo0EBh.s:712    .text.Endpoint_Write_PStream_BE:00000000 Endpoint_Write_PStream_BE
C:\Users\andz\AppData\Local\Temp/ccoo0EBh.s:833    .text.Endpoint_Read_Stream_LE:00000000 Endpoint_Read_Stream_LE
C:\Users\andz\AppData\Local\Temp/ccoo0EBh.s:951    .text.Endpoint_Read_Stream_BE:00000000 Endpoint_Read_Stream_BE
C:\Users\andz\AppData\Local\Temp/ccoo0EBh.s:1063   .text.Endpoint_Write_Control_Stream_LE:00000000 Endpoint_Write_Control_Stream_LE
C:\Users\andz\AppData\Local\Temp/ccoo0EBh.s:1220   .text.Endpoint_Write_Control_PStream_LE:00000000 Endpoint_Write_Control_PStream_LE
C:\Users\andz\AppData\Local\Temp/ccoo0EBh.s:1394   .text.Endpoint_Write_Control_Stream_BE:00000000 Endpoint_Write_Control_Stream_BE
C:\Users\andz\AppData\Local\Temp/ccoo0EBh.s:1554   .text.Endpoint_Write_Control_PStream_BE:00000000 Endpoint_Write_Control_PStream_BE
C:\Users\andz\AppData\Local\Temp/ccoo0EBh.s:1733   .text.Endpoint_Read_Control_Stream_LE:00000000 Endpoint_Read_Control_Stream_LE
C:\Users\andz\AppData\Local\Temp/ccoo0EBh.s:1848   .text.Endpoint_Read_Control_Stream_BE:00000000 Endpoint_Read_Control_Stream_BE
C:\Users\andz\AppData\Local\Temp/ccoo0EBh.s:1974   .text.Endpoint_Read_Control_EStream_BE:00000000 Endpoint_Read_Control_EStream_BE
C:\Users\andz\AppData\Local\Temp/ccoo0EBh.s:2127   .text.Endpoint_Read_Control_EStream_LE:00000000 Endpoint_Read_Control_EStream_LE
C:\Users\andz\AppData\Local\Temp/ccoo0EBh.s:2269   .text.Endpoint_Read_EStream_BE:00000000 Endpoint_Read_EStream_BE
C:\Users\andz\AppData\Local\Temp/ccoo0EBh.s:2389   .text.Endpoint_Read_EStream_LE:00000000 Endpoint_Read_EStream_LE
C:\Users\andz\AppData\Local\Temp/ccoo0EBh.s:2512   .text.Endpoint_Write_Control_EStream_BE:00000000 Endpoint_Write_Control_EStream_BE
C:\Users\andz\AppData\Local\Temp/ccoo0EBh.s:2702   .text.Endpoint_Write_Control_EStream_LE:00000000 Endpoint_Write_Control_EStream_LE
C:\Users\andz\AppData\Local\Temp/ccoo0EBh.s:2888   .text.Endpoint_Write_EStream_BE:00000000 Endpoint_Write_EStream_BE
C:\Users\andz\AppData\Local\Temp/ccoo0EBh.s:3007   .text.Endpoint_Write_EStream_LE:00000000 Endpoint_Write_EStream_LE

UNDEFINED SYMBOLS
USB_ControlRequest
USB_DeviceState
__eewr_byte_m32u4
__eerd_byte_m32u4
